---
triple:          'x86_64-apple-darwin'
binary-path:     ciphers_main
relocations:
  - { offset: 0x3B, size: 0x8, addend: 0x0, symName: _.str, symObjAddr: 0x595A0, symBinAddr: 0x1000689A0, symSize: 0x0 }
  - { offset: 0x6F, size: 0x8, addend: 0x0, symName: __ZL8ALPHABET, symObjAddr: 0x157DC0, symBinAddr: 0x1000865C0, symSize: 0x0 }
  - { offset: 0xF504, size: 0x8, addend: 0x0, symName: __ZNSt3__17advanceB8ne180100IPNS_12basic_stringIcNS_11char_traitsIcEENS_9allocatorIcEEEEllvEEvRT_T0_, symObjAddr: 0x19C58, symBinAddr: 0x10001D378, symSize: 0x70 }
  - { offset: 0xF784, size: 0x8, addend: 0x0, symName: __ZNSt3__17advanceB8ne180100INS_16reverse_iteratorIPNS_12basic_stringIcNS_11char_traitsIcEENS_9allocatorIcEEEEEEllvEEvRT_T0_, symObjAddr: 0x1ADD8, symBinAddr: 0x10001E4F8, symSize: 0x70 }
  - { offset: 0x1568F, size: 0x8, addend: 0x0, symName: __ZNSt3__17advanceB8ne180100IPNS_4pairIiNS_12basic_stringIcNS_11char_traitsIcEENS_9allocatorIcEEEEEEllvEEvRT_T0_, symObjAddr: 0x402E8, symBinAddr: 0x100043A08, symSize: 0x70 }
  - { offset: 0x1590F, size: 0x8, addend: 0x0, symName: __ZNSt3__17advanceB8ne180100INS_16reverse_iteratorIPNS_4pairIiNS_12basic_stringIcNS_11char_traitsIcEENS_9allocatorIcEEEEEEEEllvEEvRT_T0_, symObjAddr: 0x41448, symBinAddr: 0x100044B68, symSize: 0x70 }
  - { offset: 0x16FF6, size: 0x8, addend: 0x0, symName: __ZNSt3__17advanceB8ne180100IPcllvEEvRT_T0_, symObjAddr: 0x4F708, symBinAddr: 0x100052E28, symSize: 0x70 }
  - { offset: 0x17061, size: 0x8, addend: 0x0, symName: __ZNSt3__124__put_character_sequenceB8ne180100IcNS_11char_traitsIcEEEERNS_13basic_ostreamIT_T0_EES7_PKS4_m, symObjAddr: 0x4FBE8, symBinAddr: 0x100053308, symSize: 0xFB8 }
  - { offset: 0x18EDF, size: 0x8, addend: 0x0, symName: __ZNSt3__1lsB8ne180100INS_11char_traitsIcEEEERNS_13basic_ostreamIcT_EES6_PKc, symObjAddr: 0xB08, symBinAddr: 0x100004228, symSize: 0xA8 }
  - { offset: 0x18F25, size: 0x8, addend: 0x0, symName: __ZNSt3__14endlB8ne180100IcNS_11char_traitsIcEEEERNS_13basic_ostreamIT_T0_EES7_, symObjAddr: 0xCB8, symBinAddr: 0x1000043D8, symSize: 0x3C0 }
  - { offset: 0x196AF, size: 0x8, addend: 0x0, symName: __ZNSt3__1rsB8ne180100IcNS_11char_traitsIcEENS_9allocatorIcEEEERNS_13basic_istreamIT_T0_EES9_RNS_12basic_stringIS6_S7_T1_EE, symObjAddr: 0x3738, symBinAddr: 0x100006E58, symSize: 0x1B28 }
  - { offset: 0x19790, size: 0x8, addend: 0x0, symName: __ZNSt3__17getlineB8ne180100IcNS_11char_traitsIcEENS_9allocatorIcEEEERNS_13basic_istreamIT_T0_EES9_RNS_12basic_stringIS6_S7_T1_EE, symObjAddr: 0x55C8, symBinAddr: 0x100008CE8, symSize: 0x2C8 }
  - { offset: 0x19D77, size: 0x8, addend: 0x0, symName: __ZNSt3__17getlineB8ne180100IcNS_11char_traitsIcEENS_9allocatorIcEEEERNS_13basic_istreamIT_T0_EES9_RNS_12basic_stringIS6_S7_T1_EES6_, symObjAddr: 0x5C68, symBinAddr: 0x100009388, symSize: 0xFA8 }
  - { offset: 0x1AA69, size: 0x8, addend: 0x0, symName: __ZNSt3__1eqB8ne180100IcNS_11char_traitsIcEENS_9allocatorIcEEEEbRKNS_12basic_stringIT_T0_T1_EEPKS6_, symObjAddr: 0x6F48, symBinAddr: 0x10000A668, symSize: 0x1D0 }
  - { offset: 0x1AACE, size: 0x8, addend: 0x0, symName: __ZNSt3__1neB8ne180100IPKcEEbRKNS_11__wrap_iterIT_EES7_, symObjAddr: 0xAF68, symBinAddr: 0x10000E688, symSize: 0x98 }
  - { offset: 0x1AB11, size: 0x8, addend: 0x0, symName: __ZNSt3__1lsB8ne180100IcNS_11char_traitsIcEENS_9allocatorIcEEEERNS_13basic_ostreamIT_T0_EES9_RKNS_12basic_stringIS6_S7_T1_EE, symObjAddr: 0xB2F8, symBinAddr: 0x10000EA18, symSize: 0x100 }
  - { offset: 0x1AB69, size: 0x8, addend: 0x0, symName: __ZNSt3__1neB8ne180100IPNS_12basic_stringIcNS_11char_traitsIcEENS_9allocatorIcEEEEEEbRKNS_11__wrap_iterIT_EESC_, symObjAddr: 0xB8C8, symBinAddr: 0x10000EFE8, symSize: 0x98 }
  - { offset: 0x1AF06, size: 0x8, addend: 0x0, symName: __ZNSt3__1neB8ne180100IPKNS_12basic_stringIcNS_11char_traitsIcEENS_9allocatorIcEEEEEEbRKNS_11__wrap_iterIT_EESD_, symObjAddr: 0xDFC8, symBinAddr: 0x1000116E8, symSize: 0x98 }
  - { offset: 0x1AF49, size: 0x8, addend: 0x0, symName: __ZNSt3__14findB8ne180100INS_11__wrap_iterIPKNS_12basic_stringIcNS_11char_traitsIcEENS_9allocatorIcEEEEEES7_EET_SB_SB_RKT0_, symObjAddr: 0xE118, symBinAddr: 0x100011838, symSize: 0x258 }
  - { offset: 0x1AFB8, size: 0x8, addend: 0x0, symName: __ZNSt3__1neB8ne180100IPNS_4pairIiNS_12basic_stringIcNS_11char_traitsIcEENS_9allocatorIcEEEEEEEEbRKNS_11__wrap_iterIT_EESE_, symObjAddr: 0xEA18, symBinAddr: 0x100012138, symSize: 0x98 }
  - { offset: 0x1AFFB, size: 0x8, addend: 0x0, symName: __ZNSt3__14swapB8ne180100IcEENS_9enable_ifIXaasr21is_move_constructibleIT_EE5valuesr18is_move_assignableIS2_EE5valueEvE4typeERS2_S5_, symObjAddr: 0x10DF8, symBinAddr: 0x100014518, symSize: 0x198 }
  - { offset: 0x1B1F8, size: 0x8, addend: 0x0, symName: __ZNSt3__118__constexpr_strlenB8ne180100EPKc, symObjAddr: 0x12BA8, symBinAddr: 0x1000162C8, symSize: 0x28 }
  - { offset: 0x1B224, size: 0x8, addend: 0x0, symName: __ZNSt3__112__to_addressB8ne180100INS_12basic_stringIcNS_11char_traitsIcEENS_9allocatorIcEEEEEEPT_S8_, symObjAddr: 0x140E8, symBinAddr: 0x100017808, symSize: 0x18 }
  - { offset: 0x1B259, size: 0x8, addend: 0x0, symName: __ZNSt3__114__construct_atB8ne180100INS_12basic_stringIcNS_11char_traitsIcEENS_9allocatorIcEEEEJRKS6_EPS6_EEPT_SB_DpOT0_, symObjAddr: 0x14A78, symBinAddr: 0x100018198, symSize: 0x70 }
  - { offset: 0x1B2D1, size: 0x8, addend: 0x0, symName: __ZNSt3__112construct_atB8ne180100INS_12basic_stringIcNS_11char_traitsIcEENS_9allocatorIcEEEEJRKS6_EPS6_EEPT_SB_DpOT0_, symObjAddr: 0x14AE8, symBinAddr: 0x100018208, symSize: 0xD8 }
  - { offset: 0x1B341, size: 0x8, addend: 0x0, symName: __ZNSt3__13maxB8ne180100ImEERKT_S3_S3_, symObjAddr: 0x15EA8, symBinAddr: 0x1000195C8, symSize: 0xD0 }
  - { offset: 0x1B384, size: 0x8, addend: 0x0, symName: __ZNSt3__13minB8ne180100ImEERKT_S3_S3_, symObjAddr: 0x15F78, symBinAddr: 0x100019698, symSize: 0xD0 }
  - { offset: 0x1B5B1, size: 0x8, addend: 0x0, symName: __ZNSt3__13minB8ne180100ImNS_6__lessIvvEEEERKT_S5_S5_T0_, symObjAddr: 0x16168, symBinAddr: 0x100019888, symSize: 0x218 }
  - { offset: 0x1B656, size: 0x8, addend: 0x0, symName: __ZNSt3__120__throw_length_errorB8ne180100EPKc, symObjAddr: 0x165C8, symBinAddr: 0x100019CE8, symSize: 0xA8 }
  - { offset: 0x1B67E, size: 0x8, addend: 0x0, symName: __ZNSt3__13maxB8ne180100ImNS_6__lessIvvEEEERKT_S5_S5_T0_, symObjAddr: 0x167A8, symBinAddr: 0x100019EC8, symSize: 0x218 }
  - { offset: 0x1B6DE, size: 0x8, addend: 0x0, symName: __ZNSt3__119__allocate_at_leastB8ne180100INS_9allocatorINS_12basic_stringIcNS_11char_traitsIcEENS1_IcEEEEEEEENS_19__allocation_resultINS_16allocator_traitsIT_E7pointerEEERSA_m, symObjAddr: 0x16FD8, symBinAddr: 0x10001A6F8, symSize: 0x38 }
  - { offset: 0x1B721, size: 0x8, addend: 0x0, symName: __ZNSt3__117__libcpp_allocateB8ne180100Emm, symObjAddr: 0x17488, symBinAddr: 0x10001ABA8, symSize: 0x70 }
  - { offset: 0x1B77B, size: 0x8, addend: 0x0, symName: __ZNSt3__124__is_overaligned_for_newB8ne180100Em, symObjAddr: 0x174F8, symBinAddr: 0x10001AC18, symSize: 0x20 }
  - { offset: 0x1B7A9, size: 0x8, addend: 0x0, symName: __ZNSt3__121__libcpp_operator_newB8ne180100IJmSt11align_val_tEEEPvDpT_, symObjAddr: 0x17518, symBinAddr: 0x10001AC38, symSize: 0x70 }
  - { offset: 0x1B7F6, size: 0x8, addend: 0x0, symName: __ZNSt3__121__libcpp_operator_newB8ne180100IJmEEEPvDpT_, symObjAddr: 0x17588, symBinAddr: 0x10001ACA8, symSize: 0x28 }
  - { offset: 0x1B82F, size: 0x8, addend: 0x0, symName: __ZNSt3__142__uninitialized_allocator_move_if_noexceptB8ne180100INS_9allocatorINS_12basic_stringIcNS_11char_traitsIcEENS1_IcEEEEEENS_16reverse_iteratorIPS6_EESA_SA_EET2_RT_T0_T1_SB_, symObjAddr: 0x17968, symBinAddr: 0x10001B088, symSize: 0x578 }
  - { offset: 0x1B8E3, size: 0x8, addend: 0x0, symName: __ZNSt3__14swapB8ne180100IPNS_12basic_stringIcNS_11char_traitsIcEENS_9allocatorIcEEEEEENS_9enable_ifIXaasr21is_move_constructibleIT_EE5valuesr18is_move_assignableIS9_EE5valueEvE4typeERS9_SC_, symObjAddr: 0x17FC8, symBinAddr: 0x10001B6E8, symSize: 0x168 }
  - { offset: 0x1B934, size: 0x8, addend: 0x0, symName: __ZNSt3__122__make_exception_guardB8ne180100INS_29_AllocatorDestroyRangeReverseINS_9allocatorINS_12basic_stringIcNS_11char_traitsIcEENS2_IcEEEEEENS_16reverse_iteratorIPS7_EEEEEENS_28__exception_guard_exceptionsIT_EESE_, symObjAddr: 0x18288, symBinAddr: 0x10001B9A8, symSize: 0x1F8 }
  - { offset: 0x1B96D, size: 0x8, addend: 0x0, symName: __ZNSt3__1neB8ne180100IPNS_12basic_stringIcNS_11char_traitsIcEENS_9allocatorIcEEEES7_EEbRKNS_16reverse_iteratorIT_EERKNS8_IT0_EEQrqXnecldtfp_4baseEcldtfp0_4baseERNS_14convertible_toIbEEE, symObjAddr: 0x184F8, symBinAddr: 0x10001BC18, symSize: 0xA0 }
  - { offset: 0x1B9B9, size: 0x8, addend: 0x0, symName: __ZNSt3__112__to_addressB8ne180100INS_16reverse_iteratorIPNS_12basic_stringIcNS_11char_traitsIcEENS_9allocatorIcEEEEEEvEEu7__decayIDTclsr19__to_address_helperIT_EE6__callclsr3stdE7declvalIRKSA_EEEEESC_, symObjAddr: 0x18608, symBinAddr: 0x10001BD28, symSize: 0x58 }
  - { offset: 0x1B9EF, size: 0x8, addend: 0x0, symName: __ZNSt3__114__construct_atB8ne180100INS_12basic_stringIcNS_11char_traitsIcEENS_9allocatorIcEEEEJS6_EPS6_EEPT_S9_DpOT0_, symObjAddr: 0x18FC8, symBinAddr: 0x10001C6E8, symSize: 0x70 }
  - { offset: 0x1BA42, size: 0x8, addend: 0x0, symName: __ZNSt3__112construct_atB8ne180100INS_12basic_stringIcNS_11char_traitsIcEENS_9allocatorIcEEEEJS6_EPS6_EEPT_S9_DpOT0_, symObjAddr: 0x19038, symBinAddr: 0x10001C758, symSize: 0xD8 }
  - { offset: 0x1BADB, size: 0x8, addend: 0x0, symName: __ZNSt3__14prevB8ne180100IPNS_12basic_stringIcNS_11char_traitsIcEENS_9allocatorIcEEEETnNS_9enable_ifIXsr29__has_input_iterator_categoryIT_EE5valueEiE4typeELi0EEES9_S9_NS_15iterator_traitsIS9_E15difference_typeE, symObjAddr: 0x19AC8, symBinAddr: 0x10001D1E8, symSize: 0x190 }
  - { offset: 0x1BB29, size: 0x8, addend: 0x0, symName: __ZNSt3__121__convert_to_integralB8ne180100El, symObjAddr: 0x19CC8, symBinAddr: 0x10001D3E8, symSize: 0x20 }
  - { offset: 0x1BB55, size: 0x8, addend: 0x0, symName: __ZNSt3__19__advanceB8ne180100IPNS_12basic_stringIcNS_11char_traitsIcEENS_9allocatorIcEEEEEEvRT_NS_15iterator_traitsIS8_E15difference_typeENS_26random_access_iterator_tagE, symObjAddr: 0x19CE8, symBinAddr: 0x10001D408, symSize: 0xF8 }
  - { offset: 0x1BB9E, size: 0x8, addend: 0x0, symName: __ZNSt3__119__allocator_destroyB8ne180100INS_9allocatorINS_12basic_stringIcNS_11char_traitsIcEENS1_IcEEEEEENS_16reverse_iteratorINS8_IPS6_EEEESB_EEvRT_T0_T1_, symObjAddr: 0x1A228, symBinAddr: 0x10001D948, symSize: 0x2F8 }
  - { offset: 0x1BC0A, size: 0x8, addend: 0x0, symName: __ZNSt3__1neB8ne180100INS_16reverse_iteratorIPNS_12basic_stringIcNS_11char_traitsIcEENS_9allocatorIcEEEEEES9_EEbRKNS1_IT_EERKNS1_IT0_EEQrqXnecldtfp_4baseEcldtfp0_4baseERNS_14convertible_toIbEEE, symObjAddr: 0x1A588, symBinAddr: 0x10001DCA8, symSize: 0x220 }
  - { offset: 0x1BC58, size: 0x8, addend: 0x0, symName: __ZNSt3__112__to_addressB8ne180100INS_16reverse_iteratorINS1_IPNS_12basic_stringIcNS_11char_traitsIcEENS_9allocatorIcEEEEEEEEvEEu7__decayIDTclsr19__to_address_helperIT_EE6__callclsr3stdE7declvalIRKSB_EEEEESD_, symObjAddr: 0x1A7D8, symBinAddr: 0x10001DEF8, symSize: 0x58 }
  - { offset: 0x1BC8E, size: 0x8, addend: 0x0, symName: __ZNSt3__112__destroy_atB8ne180100INS_12basic_stringIcNS_11char_traitsIcEENS_9allocatorIcEEEETnNS_9enable_ifIXntsr8is_arrayIT_EE5valueEiE4typeELi0EEEvPS8_, symObjAddr: 0x1A968, symBinAddr: 0x10001E088, symSize: 0x60 }
  - { offset: 0x1BCEE, size: 0x8, addend: 0x0, symName: __ZNSt3__14prevB8ne180100INS_16reverse_iteratorIPNS_12basic_stringIcNS_11char_traitsIcEENS_9allocatorIcEEEEEETnNS_9enable_ifIXsr29__has_input_iterator_categoryIT_EE5valueEiE4typeELi0EEESB_SB_NS_15iterator_traitsISB_E15difference_typeE, symObjAddr: 0x1ABF8, symBinAddr: 0x10001E318, symSize: 0x1E0 }
  - { offset: 0x1BD3C, size: 0x8, addend: 0x0, symName: __ZNSt3__19__advanceB8ne180100INS_16reverse_iteratorIPNS_12basic_stringIcNS_11char_traitsIcEENS_9allocatorIcEEEEEEEEvRT_NS_15iterator_traitsISA_E15difference_typeENS_26random_access_iterator_tagE, symObjAddr: 0x1AE48, symBinAddr: 0x10001E568, symSize: 0x68 }
  - { offset: 0x1BD85, size: 0x8, addend: 0x0, symName: __ZNSt3__119__libcpp_deallocateB8ne180100EPvmm, symObjAddr: 0x1B808, symBinAddr: 0x10001EF28, symSize: 0x70 }
  - { offset: 0x1BDEA, size: 0x8, addend: 0x0, symName: __ZNSt3__127__do_deallocate_handle_sizeB8ne180100IJSt11align_val_tEEEvPvmDpT_, symObjAddr: 0x1B878, symBinAddr: 0x10001EF98, symSize: 0x30 }
  - { offset: 0x1BE3D, size: 0x8, addend: 0x0, symName: __ZNSt3__127__do_deallocate_handle_sizeB8ne180100IJEEEvPvmDpT_, symObjAddr: 0x1B8A8, symBinAddr: 0x10001EFC8, symSize: 0x30 }
  - { offset: 0x1BE7B, size: 0x8, addend: 0x0, symName: __ZNSt3__124__libcpp_operator_deleteB8ne180100IJPvSt11align_val_tEEEvDpT_, symObjAddr: 0x1B8D8, symBinAddr: 0x10001EFF8, symSize: 0x30 }
  - { offset: 0x1BEC4, size: 0x8, addend: 0x0, symName: __ZNSt3__124__libcpp_operator_deleteB8ne180100IJPvEEEvDpT_, symObjAddr: 0x1B908, symBinAddr: 0x10001F028, symSize: 0x28 }
  - { offset: 0x1BEF9, size: 0x8, addend: 0x0, symName: __ZNSt3__112__to_addressB8ne180100IiEEPT_S2_, symObjAddr: 0x1CC58, symBinAddr: 0x100020378, symSize: 0x18 }
  - { offset: 0x1BF2E, size: 0x8, addend: 0x0, symName: __ZNSt3__114__construct_atB8ne180100IiJRKiEPiEEPT_S5_DpOT0_, symObjAddr: 0x1D698, symBinAddr: 0x100020DB8, symSize: 0x70 }
  - { offset: 0x1BFA6, size: 0x8, addend: 0x0, symName: __ZNSt3__112construct_atB8ne180100IiJRKiEPiEEPT_S5_DpOT0_, symObjAddr: 0x1D708, symBinAddr: 0x100020E28, symSize: 0x158 }
  - { offset: 0x1C016, size: 0x8, addend: 0x0, symName: __ZNSt3__119__allocate_at_leastB8ne180100INS_9allocatorIiEEEENS_19__allocation_resultINS_16allocator_traitsIT_E7pointerEEERS5_m, symObjAddr: 0x1F358, symBinAddr: 0x100022A78, symSize: 0x38 }
  - { offset: 0x1C059, size: 0x8, addend: 0x0, symName: __ZNSt3__142__uninitialized_allocator_move_if_noexceptB8ne180100INS_9allocatorIiEENS_16reverse_iteratorIPiEES5_ivEET1_RT_T0_S9_S6_, symObjAddr: 0x1FB28, symBinAddr: 0x100023248, symSize: 0x258 }
  - { offset: 0x1C0DC, size: 0x8, addend: 0x0, symName: __ZNSt3__14swapB8ne180100IPiEENS_9enable_ifIXaasr21is_move_constructibleIT_EE5valuesr18is_move_assignableIS3_EE5valueEvE4typeERS3_S6_, symObjAddr: 0x1FE68, symBinAddr: 0x100023588, symSize: 0x168 }
  - { offset: 0x1C12D, size: 0x8, addend: 0x0, symName: __ZNSt3__14moveB8ne180100INS_16reverse_iteratorIPiEES3_EET0_T_S5_S4_, symObjAddr: 0x20128, symBinAddr: 0x100023848, symSize: 0x290 }
  - { offset: 0x1C18A, size: 0x8, addend: 0x0, symName: __ZNSt3__16__moveB8ne180100INS_17_ClassicAlgPolicyENS_16reverse_iteratorIPiEES4_S4_EENS_4pairIT0_T2_EES6_T1_S7_, symObjAddr: 0x203B8, symBinAddr: 0x100023AD8, symSize: 0x220 }
  - { offset: 0x1C1FC, size: 0x8, addend: 0x0, symName: __ZNSt3__123__dispatch_copy_or_moveB8ne180100INS_17_ClassicAlgPolicyENS_11__move_loopIS1_EENS_14__move_trivialENS_16reverse_iteratorIPiEES7_S7_EENS_4pairIT2_T4_EES9_T3_SA_, symObjAddr: 0x205D8, symBinAddr: 0x100023CF8, symSize: 0x220 }
  - { offset: 0x1C280, size: 0x8, addend: 0x0, symName: __ZNSt3__121__unwrap_and_dispatchB8ne180100INS_10__overloadINS_11__move_loopINS_17_ClassicAlgPolicyEEENS_14__move_trivialEEENS_16reverse_iteratorIPiEES9_S9_TnNS_9enable_ifIXsr12__can_rewrapIT0_T1_T2_EE5valueEiE4typeELi0EEENS_4pairISB_SD_EESB_SC_SD_, symObjAddr: 0x207F8, symBinAddr: 0x100023F18, symSize: 0x480 }
  - { offset: 0x1C31D, size: 0x8, addend: 0x0, symName: __ZNSt3__114__unwrap_rangeB8ne180100INS_16reverse_iteratorIPiEES3_EEDaT_T0_, symObjAddr: 0x20C78, symBinAddr: 0x100024398, symSize: 0x68 }
  - { offset: 0x1C4D7, size: 0x8, addend: 0x0, symName: __ZNSt3__113__unwrap_iterB8ne180100INS_16reverse_iteratorIPiEENS_18__unwrap_iter_implIS3_Lb0EEETnNS_9enable_ifIXsr21is_copy_constructibleIT_EE5valueEiE4typeELi0EEEDTclsrT0_8__unwrapclsr3stdE7declvalIS7_EEEES7_, symObjAddr: 0x210F8, symBinAddr: 0x100024818, symSize: 0x50 }
  - { offset: 0x1C51B, size: 0x8, addend: 0x0, symName: __ZNSt3__19make_pairB8ne180100INS_16reverse_iteratorIPiEES3_EENS_4pairINS_18__unwrap_ref_decayIT_E4typeENS5_IT0_E4typeEEEOS6_OS9_, symObjAddr: 0x21148, symBinAddr: 0x100024868, symSize: 0xE0 }
  - { offset: 0x1C56A, size: 0x8, addend: 0x0, symName: __ZNSt3__114__rewrap_rangeB8ne180100INS_16reverse_iteratorIPiEES3_S3_EET0_S4_T1_, symObjAddr: 0x21228, symBinAddr: 0x100024948, symSize: 0x80 }
  - { offset: 0x1C5BF, size: 0x8, addend: 0x0, symName: __ZNSt3__113__rewrap_iterB8ne180100INS_16reverse_iteratorIPiEES3_NS_18__unwrap_iter_implIS3_Lb0EEEEET_S6_T0_, symObjAddr: 0x212A8, symBinAddr: 0x1000249C8, symSize: 0xA0 }
  - { offset: 0x1C664, size: 0x8, addend: 0x0, symName: __ZNSt3__1neB8ne180100IPiS1_EEbRKNS_16reverse_iteratorIT_EERKNS2_IT0_EEQrqXnecldtfp_4baseEcldtfp0_4baseERNS_14convertible_toIbEEE, symObjAddr: 0x216A8, symBinAddr: 0x100024DC8, symSize: 0xA0 }
  - { offset: 0x1C79E, size: 0x8, addend: 0x0, symName: __ZNSt3__112__destroy_atB8ne180100IiTnNS_9enable_ifIXntsr8is_arrayIT_EE5valueEiE4typeELi0EEEvPS2_, symObjAddr: 0x22138, symBinAddr: 0x100025858, symSize: 0x18 }
  - { offset: 0x1C7D5, size: 0x8, addend: 0x0, symName: __ZNSt3__1neB8ne180100IPKiEEbRKNS_11__wrap_iterIT_EES7_, symObjAddr: 0x23018, symBinAddr: 0x100026738, symSize: 0x98 }
  - { offset: 0x1C81D, size: 0x8, addend: 0x0, symName: __ZNSt3__16__math5log10B8ne180100IiTnNS_9enable_ifIXsr11is_integralIT_EE5valueEiE4typeELi0EEEdS3_, symObjAddr: 0x23688, symBinAddr: 0x100026DA8, symSize: 0x28 }
  - { offset: 0x1C858, size: 0x8, addend: 0x0, symName: __ZNSt3__16__math4ceilB8ne180100Ef, symObjAddr: 0x27EF8, symBinAddr: 0x10002B618, symSize: 0x18 }
  - { offset: 0x1C8C9, size: 0x8, addend: 0x0, symName: __ZNSt3__1eqB8ne180100IPKiEEbRKNS_11__wrap_iterIT_EES7_, symObjAddr: 0x24F48, symBinAddr: 0x100028668, symSize: 0x98 }
  - { offset: 0x1C90C, size: 0x8, addend: 0x0, symName: __ZNSt3__116__constrain_hashB8ne180100Emm, symObjAddr: 0x26F28, symBinAddr: 0x10002A648, symSize: 0xB8 }
  - { offset: 0x1C946, size: 0x8, addend: 0x0, symName: __ZNSt3__116__is_hash_power2B8ne180100Em, symObjAddr: 0x27EA8, symBinAddr: 0x10002B5C8, symSize: 0x50 }
  - { offset: 0x1C972, size: 0x8, addend: 0x0, symName: __ZNSt3__116__do_string_hashB8ne180100IPKcEEmT_S3_, symObjAddr: 0x28768, symBinAddr: 0x10002BE88, symSize: 0x168 }
  - { offset: 0x1C9BA, size: 0x8, addend: 0x0, symName: __ZNSt3__110__loadwordB8ne180100ImEET_PKv, symObjAddr: 0x2AAA8, symBinAddr: 0x10002E1C8, symSize: 0x30 }
  - { offset: 0x1C9FD, size: 0x8, addend: 0x0, symName: __ZNSt3__14swapB8ne180100ImEENS_9enable_ifIXaasr21is_move_constructibleIT_EE5valuesr18is_move_assignableIS2_EE5valueEvE4typeERS2_S5_, symObjAddr: 0x2B018, symBinAddr: 0x10002E738, symSize: 0x170 }
  - { offset: 0x1CA4E, size: 0x8, addend: 0x0, symName: __ZNSt3__110__loadwordB8ne180100IjEET_PKv, symObjAddr: 0x2B2C8, symBinAddr: 0x10002E9E8, symSize: 0x30 }
  - { offset: 0x1CA91, size: 0x8, addend: 0x0, symName: __ZNSt3__112__to_addressB8ne180100IKcEEPT_S3_, symObjAddr: 0x2B768, symBinAddr: 0x10002EE88, symSize: 0x18 }
  - { offset: 0x1CAF9, size: 0x8, addend: 0x0, symName: __ZNSt3__1eqB8ne180100INS_9allocatorIcEEEEbRKNS_12basic_stringIcNS_11char_traitsIcEET_EES9_, symObjAddr: 0x2C338, symBinAddr: 0x10002FA58, symSize: 0x380 }
  - { offset: 0x1CB6C, size: 0x8, addend: 0x0, symName: __ZNSt3__17launderB8ne180100IKNS_4pairIKNS_12basic_stringIcNS_11char_traitsIcEENS_9allocatorIcEEEEdEEEEPT_SC_, symObjAddr: 0x2C6F8, symBinAddr: 0x10002FE18, symSize: 0x30 }
  - { offset: 0x1CBA3, size: 0x8, addend: 0x0, symName: __ZNSt3__19__launderB8ne180100IKNS_4pairIKNS_12basic_stringIcNS_11char_traitsIcEENS_9allocatorIcEEEEdEEEEPT_SC_, symObjAddr: 0x2C728, symBinAddr: 0x10002FE48, symSize: 0x20 }
  - { offset: 0x1CC2B, size: 0x8, addend: 0x0, symName: __ZNSt3__114__construct_atB8ne180100INS_11__hash_nodeINS_17__hash_value_typeINS_12basic_stringIcNS_11char_traitsIcEENS_9allocatorIcEEEEdEEPvEEJDnRmEPSB_EEPT_SF_DpOT0_, symObjAddr: 0x2C948, symBinAddr: 0x100030068, symSize: 0xA8 }
  - { offset: 0x1CCB6, size: 0x8, addend: 0x0, symName: __ZNSt3__112construct_atB8ne180100INS_11__hash_nodeINS_17__hash_value_typeINS_12basic_stringIcNS_11char_traitsIcEENS_9allocatorIcEEEEdEEPvEEJDnRmEPSB_EEPT_SF_DpOT0_, symObjAddr: 0x2D4F8, symBinAddr: 0x100030C18, symSize: 0x108 }
  - { offset: 0x1CD39, size: 0x8, addend: 0x0, symName: __ZNSt3__114__construct_atB8ne180100INS_4pairIKNS_12basic_stringIcNS_11char_traitsIcEENS_9allocatorIcEEEEdEEJRS8_dEPS9_EEPT_SD_DpOT0_, symObjAddr: 0x2D938, symBinAddr: 0x100031058, symSize: 0xB0 }
  - { offset: 0x1CDC4, size: 0x8, addend: 0x0, symName: __ZNSt3__112construct_atB8ne180100INS_4pairIKNS_12basic_stringIcNS_11char_traitsIcEENS_9allocatorIcEEEEdEEJRS8_dEPS9_EEPT_SD_DpOT0_, symObjAddr: 0x2D9E8, symBinAddr: 0x100031108, symSize: 0x108 }
  - { offset: 0x1CE47, size: 0x8, addend: 0x0, symName: __ZNSt3__17launderB8ne180100INS_4pairIKNS_12basic_stringIcNS_11char_traitsIcEENS_9allocatorIcEEEEdEEEEPT_SB_, symObjAddr: 0x2DD28, symBinAddr: 0x100031448, symSize: 0x30 }
  - { offset: 0x1CE7E, size: 0x8, addend: 0x0, symName: __ZNSt3__19__launderB8ne180100INS_4pairIKNS_12basic_stringIcNS_11char_traitsIcEENS_9allocatorIcEEEEdEEEEPT_SB_, symObjAddr: 0x2DD58, symBinAddr: 0x100031478, symSize: 0x18 }
  - { offset: 0x1CEB5, size: 0x8, addend: 0x0, symName: __ZNSt3__116__next_hash_pow2B8ne180100Em, symObjAddr: 0x2F688, symBinAddr: 0x100032DA8, symSize: 0xB8 }
  - { offset: 0x1CEE1, size: 0x8, addend: 0x0, symName: __ZNSt3__112__libcpp_clzB8ne180100Em, symObjAddr: 0x30338, symBinAddr: 0x100033A58, symSize: 0x48 }
  - { offset: 0x1CF0D, size: 0x8, addend: 0x0, symName: __ZNSt3__112__destroy_atB8ne180100INS_11__hash_nodeINS_17__hash_value_typeINS_12basic_stringIcNS_11char_traitsIcEENS_9allocatorIcEEEEdEEPvEETnNS_9enable_ifIXntsr8is_arrayIT_EE5valueEiE4typeELi0EEEvPSD_, symObjAddr: 0x30A58, symBinAddr: 0x100034178, symSize: 0x60 }
  - { offset: 0x1CF44, size: 0x8, addend: 0x0, symName: __ZNSt3__112__destroy_atB8ne180100INS_4pairIKNS_12basic_stringIcNS_11char_traitsIcEENS_9allocatorIcEEEEdEETnNS_9enable_ifIXntsr8is_arrayIT_EE5valueEiE4typeELi0EEEvPSB_, symObjAddr: 0x30AF8, symBinAddr: 0x100034218, symSize: 0x58 }
  - { offset: 0x1CF7B, size: 0x8, addend: 0x0, symName: __ZNSt3__120__throw_out_of_rangeB8ne180100EPKc, symObjAddr: 0x31178, symBinAddr: 0x100034898, symSize: 0xA8 }
  - { offset: 0x1CFA3, size: 0x8, addend: 0x0, symName: __ZNSt3__1eqB8ne180100IcNS_11char_traitsIcEEEEbNS_17basic_string_viewIT_T0_EENS_13type_identityIS6_E4typeE, symObjAddr: 0x31FE8, symBinAddr: 0x100035708, symSize: 0x208 }
  - { offset: 0x1CFFA, size: 0x8, addend: 0x0, symName: __ZNSt3__128__char_traits_length_checkedB8ne180100INS_11char_traitsIcEEEEmPKNT_9char_typeE, symObjAddr: 0x32A88, symBinAddr: 0x1000361A8, symSize: 0x28 }
  - { offset: 0x1D031, size: 0x8, addend: 0x0, symName: __ZNSt3__1eqB8ne180100IPKcEEbRKNS_11__wrap_iterIT_EES7_, symObjAddr: 0x34068, symBinAddr: 0x100037788, symSize: 0x98 }
  - { offset: 0x1D074, size: 0x8, addend: 0x0, symName: __ZNSt3__1eqB8ne180100IPNS_12basic_stringIcNS_11char_traitsIcEENS_9allocatorIcEEEEEEbRKNS_11__wrap_iterIT_EESC_, symObjAddr: 0x345B8, symBinAddr: 0x100037CD8, symSize: 0x98 }
  - { offset: 0x1D0B7, size: 0x8, addend: 0x0, symName: __ZNSt3__1eqB8ne180100IPKNS_12basic_stringIcNS_11char_traitsIcEENS_9allocatorIcEEEEEEbRKNS_11__wrap_iterIT_EESD_, symObjAddr: 0x36968, symBinAddr: 0x10003A088, symSize: 0x98 }
  - { offset: 0x1D0FA, size: 0x8, addend: 0x0, symName: __ZNSt3__113__rewrap_iterB8ne180100INS_11__wrap_iterIPKNS_12basic_stringIcNS_11char_traitsIcEENS_9allocatorIcEEEEEES9_NS_18__unwrap_iter_implISA_Lb1EEEEET_SD_T0_, symObjAddr: 0x36A88, symBinAddr: 0x10003A1A8, symSize: 0x70 }
  - { offset: 0x1D14F, size: 0x8, addend: 0x0, symName: __ZNSt3__111__find_implB8ne180100IPKNS_12basic_stringIcNS_11char_traitsIcEENS_9allocatorIcEEEES8_S6_NS_10__identityEEET_SA_T0_RKT1_RT2_, symObjAddr: 0x36AF8, symBinAddr: 0x10003A218, symSize: 0x180 }
  - { offset: 0x1D1C9, size: 0x8, addend: 0x0, symName: __ZNSt3__113__unwrap_iterB8ne180100INS_11__wrap_iterIPKNS_12basic_stringIcNS_11char_traitsIcEENS_9allocatorIcEEEEEENS_18__unwrap_iter_implISA_Lb1EEETnNS_9enable_ifIXsr21is_copy_constructibleIT_EE5valueEiE4typeELi0EEEDTclsrT0_8__unwrapclsr3stdE7declvalISE_EEEESE_, symObjAddr: 0x36C78, symBinAddr: 0x10003A398, symSize: 0x40 }
  - { offset: 0x1D260, size: 0x8, addend: 0x0, symName: __ZNSt3__112__to_addressB8ne180100INS_11__wrap_iterIPKNS_12basic_stringIcNS_11char_traitsIcEENS_9allocatorIcEEEEEEvEEu7__decayIDTclsr19__to_address_helperIT_EE6__callclsr3stdE7declvalIRKSB_EEEEESD_, symObjAddr: 0x36FF8, symBinAddr: 0x10003A718, symSize: 0x58 }
  - { offset: 0x1D33B, size: 0x8, addend: 0x0, symName: __ZNSt3__112__to_addressB8ne180100IKNS_12basic_stringIcNS_11char_traitsIcEENS_9allocatorIcEEEEEEPT_S9_, symObjAddr: 0x37348, symBinAddr: 0x10003AA68, symSize: 0x20 }
  - { offset: 0x1D370, size: 0x8, addend: 0x0, symName: __ZNSt3__18__invokeB8ne180100IRNS_10__identityEJRKNS_12basic_stringIcNS_11char_traitsIcEENS_9allocatorIcEEEEEEEDTclclsr3stdE7declvalIT_EEspclsr3stdE7declvalIT0_EEEEOSB_DpOSC_, symObjAddr: 0x37368, symBinAddr: 0x10003AA88, symSize: 0xB8 }
  - { offset: 0x1D3EE, size: 0x8, addend: 0x0, symName: __ZNSt3__122__make_exception_guardB8ne180100INS_6vectorINS_12basic_stringIcNS_11char_traitsIcEENS_9allocatorIcEEEENS5_IS7_EEE16__destroy_vectorEEENS_28__exception_guard_exceptionsIT_EESC_, symObjAddr: 0x383A8, symBinAddr: 0x10003BAC8, symSize: 0x78 }
  - { offset: 0x1D423, size: 0x8, addend: 0x0, symName: __ZNSt3__130__uninitialized_allocator_copyB8ne180100INS_9allocatorINS_12basic_stringIcNS_11char_traitsIcEENS1_IcEEEEEEPS6_S8_S8_EET2_RT_T0_T1_S9_, symObjAddr: 0x38DE8, symBinAddr: 0x10003C508, symSize: 0x230 }
  - { offset: 0x1D4C9, size: 0x8, addend: 0x0, symName: __ZNSt3__114__unwrap_rangeB8ne180100IPNS_12basic_stringIcNS_11char_traitsIcEENS_9allocatorIcEEEES7_EEDaT_T0_, symObjAddr: 0x39018, symBinAddr: 0x10003C738, symSize: 0x40 }
  - { offset: 0x1D515, size: 0x8, addend: 0x0, symName: __ZNSt3__135__uninitialized_allocator_copy_implB8ne180100INS_9allocatorINS_12basic_stringIcNS_11char_traitsIcEENS1_IcEEEEEEPS6_S8_S8_EET2_RT_T0_T1_S9_, symObjAddr: 0x39058, symBinAddr: 0x10003C778, symSize: 0x520 }
  - { offset: 0x1D5C1, size: 0x8, addend: 0x0, symName: __ZNSt3__113__unwrap_iterB8ne180100IPNS_12basic_stringIcNS_11char_traitsIcEENS_9allocatorIcEEEENS_18__unwrap_iter_implIS7_Lb1EEETnNS_9enable_ifIXsr21is_copy_constructibleIT_EE5valueEiE4typeELi0EEEDTclsrT0_8__unwrapclsr3stdE7declvalISB_EEEESB_, symObjAddr: 0x39578, symBinAddr: 0x10003CC98, symSize: 0x30 }
  - { offset: 0x1D605, size: 0x8, addend: 0x0, symName: __ZNSt3__113__rewrap_iterB8ne180100IPNS_12basic_stringIcNS_11char_traitsIcEENS_9allocatorIcEEEES7_NS_18__unwrap_iter_implIS7_Lb1EEEEET_SA_T0_, symObjAddr: 0x395A8, symBinAddr: 0x10003CCC8, symSize: 0x50 }
  - { offset: 0x1D75C, size: 0x8, addend: 0x0, symName: __ZNSt3__122__make_exception_guardB8ne180100INS_29_AllocatorDestroyRangeReverseINS_9allocatorINS_12basic_stringIcNS_11char_traitsIcEENS2_IcEEEEEEPS7_EEEENS_28__exception_guard_exceptionsIT_EESC_, symObjAddr: 0x399D8, symBinAddr: 0x10003D0F8, symSize: 0x1F8 }
  - { offset: 0x1D795, size: 0x8, addend: 0x0, symName: __ZNSt3__114__construct_atB8ne180100INS_12basic_stringIcNS_11char_traitsIcEENS_9allocatorIcEEEEJRS6_EPS6_EEPT_SA_DpOT0_, symObjAddr: 0x3A3D8, symBinAddr: 0x10003DAF8, symSize: 0x70 }
  - { offset: 0x1D7E8, size: 0x8, addend: 0x0, symName: __ZNSt3__112construct_atB8ne180100INS_12basic_stringIcNS_11char_traitsIcEENS_9allocatorIcEEEEJRS6_EPS6_EEPT_SA_DpOT0_, symObjAddr: 0x3A448, symBinAddr: 0x10003DB68, symSize: 0xD8 }
  - { offset: 0x1D858, size: 0x8, addend: 0x0, symName: __ZNSt3__119__allocator_destroyB8ne180100INS_9allocatorINS_12basic_stringIcNS_11char_traitsIcEENS1_IcEEEEEENS_16reverse_iteratorIPS6_EESA_EEvRT_T0_T1_, symObjAddr: 0x3A928, symBinAddr: 0x10003E048, symSize: 0x200 }
  - { offset: 0x1D917, size: 0x8, addend: 0x0, symName: __ZNSt3__112__to_addressB8ne180100INS_4pairIiNS_12basic_stringIcNS_11char_traitsIcEENS_9allocatorIcEEEEEEEEPT_SA_, symObjAddr: 0x3B988, symBinAddr: 0x10003F0A8, symSize: 0x18 }
  - { offset: 0x1D94C, size: 0x8, addend: 0x0, symName: __ZNSt3__114__construct_atB8ne180100INS_4pairIiNS_12basic_stringIcNS_11char_traitsIcEENS_9allocatorIcEEEEEEJS8_EPS8_EEPT_SB_DpOT0_, symObjAddr: 0x3C3E8, symBinAddr: 0x10003FB08, symSize: 0x70 }
  - { offset: 0x1D9C4, size: 0x8, addend: 0x0, symName: __ZNSt3__112construct_atB8ne180100INS_4pairIiNS_12basic_stringIcNS_11char_traitsIcEENS_9allocatorIcEEEEEEJS8_EPS8_EEPT_SB_DpOT0_, symObjAddr: 0x3C458, symBinAddr: 0x10003FB78, symSize: 0xD8 }
  - { offset: 0x1DA34, size: 0x8, addend: 0x0, symName: __ZNSt3__119__allocate_at_leastB8ne180100INS_9allocatorINS_4pairIiNS_12basic_stringIcNS_11char_traitsIcEENS1_IcEEEEEEEEEENS_19__allocation_resultINS_16allocator_traitsIT_E7pointerEEERSC_m, symObjAddr: 0x3E278, symBinAddr: 0x100041998, symSize: 0x38 }
  - { offset: 0x1DA77, size: 0x8, addend: 0x0, symName: __ZNSt3__142__uninitialized_allocator_move_if_noexceptB8ne180100INS_9allocatorINS_4pairIiNS_12basic_stringIcNS_11char_traitsIcEENS1_IcEEEEEEEENS_16reverse_iteratorIPS8_EESC_SC_EET2_RT_T0_T1_SD_, symObjAddr: 0x3EA58, symBinAddr: 0x100042178, symSize: 0x578 }
  - { offset: 0x1DB2B, size: 0x8, addend: 0x0, symName: __ZNSt3__14swapB8ne180100IPNS_4pairIiNS_12basic_stringIcNS_11char_traitsIcEENS_9allocatorIcEEEEEEEENS_9enable_ifIXaasr21is_move_constructibleIT_EE5valuesr18is_move_assignableISB_EE5valueEvE4typeERSB_SE_, symObjAddr: 0x3F0B8, symBinAddr: 0x1000427D8, symSize: 0x168 }
  - { offset: 0x1DB7C, size: 0x8, addend: 0x0, symName: __ZNSt3__122__make_exception_guardB8ne180100INS_29_AllocatorDestroyRangeReverseINS_9allocatorINS_4pairIiNS_12basic_stringIcNS_11char_traitsIcEENS2_IcEEEEEEEENS_16reverse_iteratorIPS9_EEEEEENS_28__exception_guard_exceptionsIT_EESG_, symObjAddr: 0x3F388, symBinAddr: 0x100042AA8, symSize: 0x1F8 }
  - { offset: 0x1DBB5, size: 0x8, addend: 0x0, symName: __ZNSt3__1neB8ne180100IPNS_4pairIiNS_12basic_stringIcNS_11char_traitsIcEENS_9allocatorIcEEEEEES9_EEbRKNS_16reverse_iteratorIT_EERKNSA_IT0_EEQrqXnecldtfp_4baseEcldtfp0_4baseERNS_14convertible_toIbEEE, symObjAddr: 0x3F5F8, symBinAddr: 0x100042D18, symSize: 0xA0 }
  - { offset: 0x1DC01, size: 0x8, addend: 0x0, symName: __ZNSt3__112__to_addressB8ne180100INS_16reverse_iteratorIPNS_4pairIiNS_12basic_stringIcNS_11char_traitsIcEENS_9allocatorIcEEEEEEEEvEEu7__decayIDTclsr19__to_address_helperIT_EE6__callclsr3stdE7declvalIRKSC_EEEEESE_, symObjAddr: 0x3F698, symBinAddr: 0x100042DB8, symSize: 0x58 }
  - { offset: 0x1DC60, size: 0x8, addend: 0x0, symName: __ZNSt3__14prevB8ne180100IPNS_4pairIiNS_12basic_stringIcNS_11char_traitsIcEENS_9allocatorIcEEEEEETnNS_9enable_ifIXsr29__has_input_iterator_categoryIT_EE5valueEiE4typeELi0EEESB_SB_NS_15iterator_traitsISB_E15difference_typeE, symObjAddr: 0x40158, symBinAddr: 0x100043878, symSize: 0x190 }
  - { offset: 0x1DCAE, size: 0x8, addend: 0x0, symName: __ZNSt3__19__advanceB8ne180100IPNS_4pairIiNS_12basic_stringIcNS_11char_traitsIcEENS_9allocatorIcEEEEEEEEvRT_NS_15iterator_traitsISA_E15difference_typeENS_26random_access_iterator_tagE, symObjAddr: 0x40358, symBinAddr: 0x100043A78, symSize: 0xF8 }
  - { offset: 0x1DCF7, size: 0x8, addend: 0x0, symName: __ZNSt3__119__allocator_destroyB8ne180100INS_9allocatorINS_4pairIiNS_12basic_stringIcNS_11char_traitsIcEENS1_IcEEEEEEEENS_16reverse_iteratorINSA_IPS8_EEEESD_EEvRT_T0_T1_, symObjAddr: 0x40898, symBinAddr: 0x100043FB8, symSize: 0x2F8 }
  - { offset: 0x1DD63, size: 0x8, addend: 0x0, symName: __ZNSt3__1neB8ne180100INS_16reverse_iteratorIPNS_4pairIiNS_12basic_stringIcNS_11char_traitsIcEENS_9allocatorIcEEEEEEEESB_EEbRKNS1_IT_EERKNS1_IT0_EEQrqXnecldtfp_4baseEcldtfp0_4baseERNS_14convertible_toIbEEE, symObjAddr: 0x40BF8, symBinAddr: 0x100044318, symSize: 0x220 }
  - { offset: 0x1DDB1, size: 0x8, addend: 0x0, symName: __ZNSt3__112__to_addressB8ne180100INS_16reverse_iteratorINS1_IPNS_4pairIiNS_12basic_stringIcNS_11char_traitsIcEENS_9allocatorIcEEEEEEEEEEvEEu7__decayIDTclsr19__to_address_helperIT_EE6__callclsr3stdE7declvalIRKSD_EEEEESF_, symObjAddr: 0x40E48, symBinAddr: 0x100044568, symSize: 0x58 }
  - { offset: 0x1DDE7, size: 0x8, addend: 0x0, symName: __ZNSt3__112__destroy_atB8ne180100INS_4pairIiNS_12basic_stringIcNS_11char_traitsIcEENS_9allocatorIcEEEEEETnNS_9enable_ifIXntsr8is_arrayIT_EE5valueEiE4typeELi0EEEvPSA_, symObjAddr: 0x40FD8, symBinAddr: 0x1000446F8, symSize: 0x60 }
  - { offset: 0x1DE47, size: 0x8, addend: 0x0, symName: __ZNSt3__14prevB8ne180100INS_16reverse_iteratorIPNS_4pairIiNS_12basic_stringIcNS_11char_traitsIcEENS_9allocatorIcEEEEEEEETnNS_9enable_ifIXsr29__has_input_iterator_categoryIT_EE5valueEiE4typeELi0EEESD_SD_NS_15iterator_traitsISD_E15difference_typeE, symObjAddr: 0x41268, symBinAddr: 0x100044988, symSize: 0x1E0 }
  - { offset: 0x1DE95, size: 0x8, addend: 0x0, symName: __ZNSt3__19__advanceB8ne180100INS_16reverse_iteratorIPNS_4pairIiNS_12basic_stringIcNS_11char_traitsIcEENS_9allocatorIcEEEEEEEEEEvRT_NS_15iterator_traitsISC_E15difference_typeENS_26random_access_iterator_tagE, symObjAddr: 0x414B8, symBinAddr: 0x100044BD8, symSize: 0x68 }
  - { offset: 0x1DEDE, size: 0x8, addend: 0x0, symName: __ZNSt3__1eqB8ne180100IPNS_4pairIiNS_12basic_stringIcNS_11char_traitsIcEENS_9allocatorIcEEEEEEEEbRKNS_11__wrap_iterIT_EESE_, symObjAddr: 0x42478, symBinAddr: 0x100045B98, symSize: 0x98 }
  - { offset: 0x1DF21, size: 0x8, addend: 0x0, symName: __ZNSt3__112__to_addressB8ne180100IcEEPT_S2_, symObjAddr: 0x44298, symBinAddr: 0x1000479B8, symSize: 0x18 }
  - { offset: 0x1DF56, size: 0x8, addend: 0x0, symName: __ZNSt3__114__construct_atB8ne180100IcJRKcEPcEEPT_S5_DpOT0_, symObjAddr: 0x44BD8, symBinAddr: 0x1000482F8, symSize: 0x60 }
  - { offset: 0x1DFCE, size: 0x8, addend: 0x0, symName: __ZNSt3__112construct_atB8ne180100IcJRKcEPcEEPT_S5_DpOT0_, symObjAddr: 0x44C38, symBinAddr: 0x100048358, symSize: 0x118 }
  - { offset: 0x1E03E, size: 0x8, addend: 0x0, symName: __ZNSt3__119__allocate_at_leastB8ne180100INS_9allocatorIcEEEENS_19__allocation_resultINS_16allocator_traitsIT_E7pointerEEERS5_m, symObjAddr: 0x467C8, symBinAddr: 0x100049EE8, symSize: 0x38 }
  - { offset: 0x1E081, size: 0x8, addend: 0x0, symName: __ZNSt3__142__uninitialized_allocator_move_if_noexceptB8ne180100INS_9allocatorIcEENS_16reverse_iteratorIPcEES5_cvEET1_RT_T0_S9_S6_, symObjAddr: 0x46F88, symBinAddr: 0x10004A6A8, symSize: 0x258 }
  - { offset: 0x1E104, size: 0x8, addend: 0x0, symName: __ZNSt3__14swapB8ne180100IPcEENS_9enable_ifIXaasr21is_move_constructibleIT_EE5valuesr18is_move_assignableIS3_EE5valueEvE4typeERS3_S6_, symObjAddr: 0x472C8, symBinAddr: 0x10004A9E8, symSize: 0x168 }
  - { offset: 0x1E155, size: 0x8, addend: 0x0, symName: __ZNSt3__14moveB8ne180100INS_16reverse_iteratorIPcEES3_EET0_T_S5_S4_, symObjAddr: 0x47578, symBinAddr: 0x10004AC98, symSize: 0x290 }
  - { offset: 0x1E1B2, size: 0x8, addend: 0x0, symName: __ZNSt3__16__moveB8ne180100INS_17_ClassicAlgPolicyENS_16reverse_iteratorIPcEES4_S4_EENS_4pairIT0_T2_EES6_T1_S7_, symObjAddr: 0x47808, symBinAddr: 0x10004AF28, symSize: 0x220 }
  - { offset: 0x1E224, size: 0x8, addend: 0x0, symName: __ZNSt3__123__dispatch_copy_or_moveB8ne180100INS_17_ClassicAlgPolicyENS_11__move_loopIS1_EENS_14__move_trivialENS_16reverse_iteratorIPcEES7_S7_EENS_4pairIT2_T4_EES9_T3_SA_, symObjAddr: 0x47A28, symBinAddr: 0x10004B148, symSize: 0x220 }
  - { offset: 0x1E2A8, size: 0x8, addend: 0x0, symName: __ZNSt3__121__unwrap_and_dispatchB8ne180100INS_10__overloadINS_11__move_loopINS_17_ClassicAlgPolicyEEENS_14__move_trivialEEENS_16reverse_iteratorIPcEES9_S9_TnNS_9enable_ifIXsr12__can_rewrapIT0_T1_T2_EE5valueEiE4typeELi0EEENS_4pairISB_SD_EESB_SC_SD_, symObjAddr: 0x47C48, symBinAddr: 0x10004B368, symSize: 0x480 }
  - { offset: 0x1E345, size: 0x8, addend: 0x0, symName: __ZNSt3__114__unwrap_rangeB8ne180100INS_16reverse_iteratorIPcEES3_EEDaT_T0_, symObjAddr: 0x480C8, symBinAddr: 0x10004B7E8, symSize: 0x68 }
  - { offset: 0x1E465, size: 0x8, addend: 0x0, symName: __ZNSt3__113__unwrap_iterB8ne180100INS_16reverse_iteratorIPcEENS_18__unwrap_iter_implIS3_Lb0EEETnNS_9enable_ifIXsr21is_copy_constructibleIT_EE5valueEiE4typeELi0EEEDTclsrT0_8__unwrapclsr3stdE7declvalIS7_EEEES7_, symObjAddr: 0x48518, symBinAddr: 0x10004BC38, symSize: 0x50 }
  - { offset: 0x1E4A9, size: 0x8, addend: 0x0, symName: __ZNSt3__19make_pairB8ne180100INS_16reverse_iteratorIPcEES3_EENS_4pairINS_18__unwrap_ref_decayIT_E4typeENS5_IT0_E4typeEEEOS6_OS9_, symObjAddr: 0x48568, symBinAddr: 0x10004BC88, symSize: 0xE0 }
  - { offset: 0x1E4F8, size: 0x8, addend: 0x0, symName: __ZNSt3__114__rewrap_rangeB8ne180100INS_16reverse_iteratorIPcEES3_S3_EET0_S4_T1_, symObjAddr: 0x48648, symBinAddr: 0x10004BD68, symSize: 0x80 }
  - { offset: 0x1E54D, size: 0x8, addend: 0x0, symName: __ZNSt3__113__rewrap_iterB8ne180100INS_16reverse_iteratorIPcEES3_NS_18__unwrap_iter_implIS3_Lb0EEEEET_S6_T0_, symObjAddr: 0x486C8, symBinAddr: 0x10004BDE8, symSize: 0xA0 }
  - { offset: 0x1E5F2, size: 0x8, addend: 0x0, symName: __ZNSt3__1neB8ne180100IPcS1_EEbRKNS_16reverse_iteratorIT_EERKNS2_IT0_EEQrqXnecldtfp_4baseEcldtfp0_4baseERNS_14convertible_toIbEEE, symObjAddr: 0x48AC8, symBinAddr: 0x10004C1E8, symSize: 0xA0 }
  - { offset: 0x1E691, size: 0x8, addend: 0x0, symName: __ZNSt3__112__destroy_atB8ne180100IcTnNS_9enable_ifIXntsr8is_arrayIT_EE5valueEiE4typeELi0EEEvPS2_, symObjAddr: 0x494D8, symBinAddr: 0x10004CBF8, symSize: 0x18 }
  - { offset: 0x1E6C8, size: 0x8, addend: 0x0, symName: __ZNSt3__1eqB8ne180100ERKNS_25__hash_map_const_iteratorINS_21__hash_const_iteratorIPNS_11__hash_nodeINS_17__hash_value_typeINS_12basic_stringIcNS_11char_traitsIcEENS_9allocatorIcEEEEdEEPvEEEEEESH_, symObjAddr: 0x4A368, symBinAddr: 0x10004DA88, symSize: 0x98 }
  - { offset: 0x1E705, size: 0x8, addend: 0x0, symName: __ZNSt3__1eqB8ne180100ERKNS_21__hash_const_iteratorIPNS_11__hash_nodeINS_17__hash_value_typeINS_12basic_stringIcNS_11char_traitsIcEENS_9allocatorIcEEEEdEEPvEEEESF_, symObjAddr: 0x4B4E8, symBinAddr: 0x10004EC08, symSize: 0xE0 }
  - { offset: 0x1E7A8, size: 0x8, addend: 0x0, symName: __ZNSt3__122__make_exception_guardB8ne180100INS_6vectorIcNS_9allocatorIcEEE16__destroy_vectorEEENS_28__exception_guard_exceptionsIT_EES7_, symObjAddr: 0x4BFE8, symBinAddr: 0x10004F708, symSize: 0x78 }
  - { offset: 0x1E7DD, size: 0x8, addend: 0x0, symName: __ZNSt3__130__uninitialized_allocator_copyB8ne180100INS_9allocatorIcEEPcS3_S3_EET2_RT_T0_T1_S4_, symObjAddr: 0x4CA18, symBinAddr: 0x100050138, symSize: 0x230 }
  - { offset: 0x1E883, size: 0x8, addend: 0x0, symName: __ZNSt3__114__unwrap_rangeB8ne180100IPcS1_EEDaT_T0_, symObjAddr: 0x4CC48, symBinAddr: 0x100050368, symSize: 0x40 }
  - { offset: 0x1E8CF, size: 0x8, addend: 0x0, symName: __ZNSt3__135__uninitialized_allocator_copy_implB8ne180100INS_9allocatorIcEEcccTnPNS_9enable_ifIXaaaaaasr31is_trivially_copy_constructibleIT1_EE5valuesr28is_trivially_copy_assignableIS4_EE5valuesr7is_sameIu14__remove_constIT0_Eu14__remove_constIT2_EEE5valuesr38__allocator_has_trivial_copy_constructIT_S4_EE5valueEvE4typeELPv0EEEPS7_RS9_PS5_SG_SE_, symObjAddr: 0x4CC88, symBinAddr: 0x1000503A8, symSize: 0x40 }
  - { offset: 0x1E950, size: 0x8, addend: 0x0, symName: __ZNSt3__113__unwrap_iterB8ne180100IPcNS_18__unwrap_iter_implIS1_Lb1EEETnNS_9enable_ifIXsr21is_copy_constructibleIT_EE5valueEiE4typeELi0EEEDTclsrT0_8__unwrapclsr3stdE7declvalIS5_EEEES5_, symObjAddr: 0x4CCC8, symBinAddr: 0x1000503E8, symSize: 0x30 }
  - { offset: 0x1E994, size: 0x8, addend: 0x0, symName: __ZNSt3__113__rewrap_iterB8ne180100IPcS1_NS_18__unwrap_iter_implIS1_Lb1EEEEET_S4_T0_, symObjAddr: 0x4CCF8, symBinAddr: 0x100050418, symSize: 0x50 }
  - { offset: 0x1EB3C, size: 0x8, addend: 0x0, symName: __ZNSt3__14copyB8ne180100IPcS1_EET0_T_S3_S2_, symObjAddr: 0x4D128, symBinAddr: 0x100050848, symSize: 0x1C0 }
  - { offset: 0x1EB99, size: 0x8, addend: 0x0, symName: __ZNSt3__16__copyB8ne180100INS_17_ClassicAlgPolicyEPcS2_S2_EENS_4pairIT0_T2_EES4_T1_S5_, symObjAddr: 0x4D2E8, symBinAddr: 0x100050A08, symSize: 0x50 }
  - { offset: 0x1EC05, size: 0x8, addend: 0x0, symName: __ZNSt3__123__dispatch_copy_or_moveB8ne180100INS_17_ClassicAlgPolicyENS_11__copy_loopIS1_EENS_14__copy_trivialEPcS5_S5_EENS_4pairIT2_T4_EES7_T3_S8_, symObjAddr: 0x4D338, symBinAddr: 0x100050A58, symSize: 0x50 }
  - { offset: 0x1EC83, size: 0x8, addend: 0x0, symName: __ZNSt3__121__unwrap_and_dispatchB8ne180100INS_10__overloadINS_11__copy_loopINS_17_ClassicAlgPolicyEEENS_14__copy_trivialEEEPcS7_S7_TnNS_9enable_ifIXsr12__can_rewrapIT0_T1_T2_EE5valueEiE4typeELi0EEENS_4pairIS9_SB_EES9_SA_SB_, symObjAddr: 0x4D388, symBinAddr: 0x100050AA8, symSize: 0x378 }
  - { offset: 0x1ED62, size: 0x8, addend: 0x0, symName: __ZNSt3__19make_pairB8ne180100IPcS1_EENS_4pairINS_18__unwrap_ref_decayIT_E4typeENS3_IT0_E4typeEEEOS4_OS7_, symObjAddr: 0x4D778, symBinAddr: 0x100050E98, symSize: 0x1E0 }
  - { offset: 0x1EDB3, size: 0x8, addend: 0x0, symName: __ZNSt3__114__rewrap_rangeB8ne180100IPcS1_S1_EET0_S2_T1_, symObjAddr: 0x4D958, symBinAddr: 0x100051078, symSize: 0x30 }
  - { offset: 0x1EE08, size: 0x8, addend: 0x0, symName: __ZNSt3__119__copy_trivial_implB8ne180100IccEENS_4pairIPT_PT0_EES3_S3_S5_, symObjAddr: 0x4D988, symBinAddr: 0x1000510A8, symSize: 0x260 }
  - { offset: 0x1EE77, size: 0x8, addend: 0x0, symName: __ZNSt3__119__constexpr_memmoveB8ne180100IccTnNS_9enable_ifIXsr23__is_always_bitcastableIT0_T_EE5valueEiE4typeELi0EEEPS3_S6_PS2_NS_15__element_countE, symObjAddr: 0x4DBE8, symBinAddr: 0x100051308, symSize: 0x60 }
  - { offset: 0x1EEE5, size: 0x8, addend: 0x0, symName: __ZNSt3__19make_pairB8ne180100IRPcS1_EENS_4pairINS_18__unwrap_ref_decayIT_E4typeENS4_IT0_E4typeEEEOS5_OS8_, symObjAddr: 0x4DC48, symBinAddr: 0x100051368, symSize: 0x1D8 }
  - { offset: 0x1EF89, size: 0x8, addend: 0x0, symName: __ZNSt3__18distanceB8ne180100IPcEENS_15iterator_traitsIT_E15difference_typeES3_S3_, symObjAddr: 0x4F318, symBinAddr: 0x100052A38, symSize: 0x30 }
  - { offset: 0x1EFCC, size: 0x8, addend: 0x0, symName: __ZNSt3__14nextB8ne180100IPcTnNS_9enable_ifIXsr29__has_input_iterator_categoryIT_EE5valueEiE4typeELi0EEES3_S3_NS_15iterator_traitsIS3_E15difference_typeE, symObjAddr: 0x4F348, symBinAddr: 0x100052A68, symSize: 0x158 }
  - { offset: 0x1F01A, size: 0x8, addend: 0x0, symName: __ZNSt3__19__advanceB8ne180100IPcEEvRT_NS_15iterator_traitsIS2_E15difference_typeENS_26random_access_iterator_tagE, symObjAddr: 0x4F778, symBinAddr: 0x100052E98, symSize: 0xE8 }
  - { offset: 0x1F063, size: 0x8, addend: 0x0, symName: __ZNSt3__110__distanceB8ne180100IPcEENS_15iterator_traitsIT_E15difference_typeES3_S3_NS_26random_access_iterator_tagE, symObjAddr: 0x4F8D8, symBinAddr: 0x100052FF8, symSize: 0x28 }
  - { offset: 0x1F0B0, size: 0x8, addend: 0x0, symName: __ZNSt3__116__pad_and_outputB8ne180100IcNS_11char_traitsIcEEEENS_19ostreambuf_iteratorIT_T0_EES6_PKS4_S8_S8_RNS_8ios_baseES4_, symObjAddr: 0x50C68, symBinAddr: 0x100054388, symSize: 0x9E8 }
  - { offset: 0x1F18A, size: 0x8, addend: 0x0, symName: __ZNSt3__19use_facetB8ne180100INS_5ctypeIcEEEERKT_RKNS_6localeE, symObjAddr: 0x52D08, symBinAddr: 0x100056428, symSize: 0x158 }
  - { offset: 0x1F568, size: 0x8, addend: 0x0, symName: __ZNSt3__110to_addressB8ne180100IcEEDaPT_, symObjAddr: 0x57C48, symBinAddr: 0x10005B368, symSize: 0x28 }
  - { offset: 0x208C6, size: 0x8, addend: 0x0, symName: __ZSt28__throw_bad_array_new_lengthB8ne180100v, symObjAddr: 0x17408, symBinAddr: 0x10001AB28, symSize: 0x80 }
  - { offset: 0x20B01, size: 0x8, addend: 0x0, symName: __ZN6Random3rngE, symObjAddr: 0x157E00, symBinAddr: 0x100086600, symSize: 0x0 }
  - { offset: 0x20B7F, size: 0x8, addend: 0x0, symName: _.str.2, symObjAddr: 0x595E0, symBinAddr: 0x1000689E0, symSize: 0x0 }
  - { offset: 0x20B9C, size: 0x8, addend: 0x0, symName: _.str.3, symObjAddr: 0x59600, symBinAddr: 0x100068A00, symSize: 0x0 }
  - { offset: 0x20BAD, size: 0x8, addend: 0x0, symName: _.str.4, symObjAddr: 0x59620, symBinAddr: 0x100068A20, symSize: 0x0 }
  - { offset: 0x20BCA, size: 0x8, addend: 0x0, symName: _.str.5, symObjAddr: 0x59660, symBinAddr: 0x100068A60, symSize: 0x0 }
  - { offset: 0x20BE7, size: 0x8, addend: 0x0, symName: _.str.6, symObjAddr: 0x596A0, symBinAddr: 0x100068AA0, symSize: 0x0 }
  - { offset: 0x20BF8, size: 0x8, addend: 0x0, symName: _.str.7, symObjAddr: 0x596E0, symBinAddr: 0x100068AE0, symSize: 0x0 }
  - { offset: 0x20C15, size: 0x8, addend: 0x0, symName: _.str.8, symObjAddr: 0x59740, symBinAddr: 0x100068B40, symSize: 0x0 }
  - { offset: 0x20C32, size: 0x8, addend: 0x0, symName: _.str.9, symObjAddr: 0x597A0, symBinAddr: 0x100068BA0, symSize: 0x0 }
  - { offset: 0x20C4F, size: 0x8, addend: 0x0, symName: _.str.10, symObjAddr: 0x597E0, symBinAddr: 0x100068BE0, symSize: 0x0 }
  - { offset: 0x20C6C, size: 0x8, addend: 0x0, symName: _.str.11, symObjAddr: 0x59820, symBinAddr: 0x100068C20, symSize: 0x0 }
  - { offset: 0x20C89, size: 0x8, addend: 0x0, symName: _.str.12, symObjAddr: 0x59860, symBinAddr: 0x100068C60, symSize: 0x0 }
  - { offset: 0x20CA6, size: 0x8, addend: 0x0, symName: _.str.13, symObjAddr: 0x59880, symBinAddr: 0x100068C80, symSize: 0x0 }
  - { offset: 0x20CC3, size: 0x8, addend: 0x0, symName: _.str.14, symObjAddr: 0x598C0, symBinAddr: 0x100068CC0, symSize: 0x0 }
  - { offset: 0x20CE0, size: 0x8, addend: 0x0, symName: _.str.15, symObjAddr: 0x59900, symBinAddr: 0x100068D00, symSize: 0x0 }
  - { offset: 0x20CF1, size: 0x8, addend: 0x0, symName: _.str.16, symObjAddr: 0x59940, symBinAddr: 0x100068D40, symSize: 0x0 }
  - { offset: 0x20D0E, size: 0x8, addend: 0x0, symName: _.str.17, symObjAddr: 0x599A0, symBinAddr: 0x100068DA0, symSize: 0x0 }
  - { offset: 0x20D2B, size: 0x8, addend: 0x0, symName: _.str.18, symObjAddr: 0x599C0, symBinAddr: 0x100068DC0, symSize: 0x0 }
  - { offset: 0x20D3C, size: 0x8, addend: 0x0, symName: _.str.19, symObjAddr: 0x599E0, symBinAddr: 0x100068DE0, symSize: 0x0 }
  - { offset: 0x20D4D, size: 0x8, addend: 0x0, symName: _.str.20, symObjAddr: 0x59A00, symBinAddr: 0x100068E00, symSize: 0x0 }
  - { offset: 0x20D5E, size: 0x8, addend: 0x0, symName: _.str.21, symObjAddr: 0x59A20, symBinAddr: 0x100068E20, symSize: 0x0 }
  - { offset: 0x20D6F, size: 0x8, addend: 0x0, symName: _.str.22, symObjAddr: 0x59A40, symBinAddr: 0x100068E40, symSize: 0x0 }
  - { offset: 0x20D80, size: 0x8, addend: 0x0, symName: _.str.23, symObjAddr: 0x59A60, symBinAddr: 0x100068E60, symSize: 0x0 }
  - { offset: 0x20D91, size: 0x8, addend: 0x0, symName: _.str.24, symObjAddr: 0x59A80, symBinAddr: 0x100068E80, symSize: 0x0 }
  - { offset: 0x20DA2, size: 0x8, addend: 0x0, symName: _.str.25, symObjAddr: 0x59AA0, symBinAddr: 0x100068EA0, symSize: 0x0 }
  - { offset: 0x20DB3, size: 0x8, addend: 0x0, symName: _.str.26, symObjAddr: 0x59AC0, symBinAddr: 0x100068EC0, symSize: 0x0 }
  - { offset: 0x20DC4, size: 0x8, addend: 0x0, symName: _.str.27, symObjAddr: 0x59AE0, symBinAddr: 0x100068EE0, symSize: 0x0 }
  - { offset: 0x20DD5, size: 0x8, addend: 0x0, symName: _.str.28, symObjAddr: 0x59B00, symBinAddr: 0x100068F00, symSize: 0x0 }
  - { offset: 0x20DE6, size: 0x8, addend: 0x0, symName: _.str.29, symObjAddr: 0x59B20, symBinAddr: 0x100068F20, symSize: 0x0 }
  - { offset: 0x20DF7, size: 0x8, addend: 0x0, symName: _.str.30, symObjAddr: 0x59B40, symBinAddr: 0x100068F40, symSize: 0x0 }
  - { offset: 0x20E08, size: 0x8, addend: 0x0, symName: _.str.31, symObjAddr: 0x59B60, symBinAddr: 0x100068F60, symSize: 0x0 }
  - { offset: 0x20E25, size: 0x8, addend: 0x0, symName: _.str.32, symObjAddr: 0x59BE0, symBinAddr: 0x100068FE0, symSize: 0x0 }
  - { offset: 0x20E36, size: 0x8, addend: 0x0, symName: _.str.33, symObjAddr: 0x59C00, symBinAddr: 0x100069000, symSize: 0x0 }
  - { offset: 0x20E47, size: 0x8, addend: 0x0, symName: _.str.34, symObjAddr: 0x59C20, symBinAddr: 0x100069020, symSize: 0x0 }
  - { offset: 0x20E64, size: 0x8, addend: 0x0, symName: _.str.35, symObjAddr: 0x59C80, symBinAddr: 0x100069080, symSize: 0x0 }
  - { offset: 0x20E75, size: 0x8, addend: 0x0, symName: _.str.36, symObjAddr: 0x59CC0, symBinAddr: 0x1000690C0, symSize: 0x0 }
  - { offset: 0x20E86, size: 0x8, addend: 0x0, symName: _.str.37, symObjAddr: 0x59D20, symBinAddr: 0x100069120, symSize: 0x0 }
  - { offset: 0x20EA3, size: 0x8, addend: 0x0, symName: _.str.38, symObjAddr: 0x59D80, symBinAddr: 0x100069180, symSize: 0x0 }
  - { offset: 0x20EB4, size: 0x8, addend: 0x0, symName: _.str.39, symObjAddr: 0x59DC0, symBinAddr: 0x1000691C0, symSize: 0x0 }
  - { offset: 0x20EC5, size: 0x8, addend: 0x0, symName: _.str.40, symObjAddr: 0x59DE0, symBinAddr: 0x1000691E0, symSize: 0x0 }
  - { offset: 0x20ED6, size: 0x8, addend: 0x0, symName: _.str.41, symObjAddr: 0x59E40, symBinAddr: 0x100069240, symSize: 0x0 }
  - { offset: 0x20EE9, size: 0x8, addend: 0x0, symName: _.str.42, symObjAddr: 0x59E80, symBinAddr: 0x100069280, symSize: 0x0 }
  - { offset: 0x20F08, size: 0x8, addend: 0x0, symName: _.str.43, symObjAddr: 0x59EE0, symBinAddr: 0x1000692E0, symSize: 0x0 }
  - { offset: 0x20F1B, size: 0x8, addend: 0x0, symName: _.str.44, symObjAddr: 0x59F20, symBinAddr: 0x100069320, symSize: 0x0 }
  - { offset: 0x20F2E, size: 0x8, addend: 0x0, symName: _.str.45, symObjAddr: 0x59F60, symBinAddr: 0x100069360, symSize: 0x0 }
  - { offset: 0x20F4D, size: 0x8, addend: 0x0, symName: _.str.46, symObjAddr: 0x59FC0, symBinAddr: 0x1000693C0, symSize: 0x0 }
  - { offset: 0x20F60, size: 0x8, addend: 0x0, symName: _.str.47, symObjAddr: 0x5A000, symBinAddr: 0x100069400, symSize: 0x0 }
  - { offset: 0x20F73, size: 0x8, addend: 0x0, symName: _.str.48, symObjAddr: 0x5A060, symBinAddr: 0x100069460, symSize: 0x0 }
  - { offset: 0x20F86, size: 0x8, addend: 0x0, symName: _.str.49, symObjAddr: 0x5A0C0, symBinAddr: 0x1000694C0, symSize: 0x0 }
  - { offset: 0x20FA5, size: 0x8, addend: 0x0, symName: _.str.50, symObjAddr: 0x5A120, symBinAddr: 0x100069520, symSize: 0x0 }
  - { offset: 0x20FB8, size: 0x8, addend: 0x0, symName: _.str.51, symObjAddr: 0x5A180, symBinAddr: 0x100069580, symSize: 0x0 }
  - { offset: 0x20FD7, size: 0x8, addend: 0x0, symName: _.str.60, symObjAddr: 0x5A1E0, symBinAddr: 0x1000695E0, symSize: 0x0 }
  - { offset: 0x20FF4, size: 0x8, addend: 0x0, symName: ___func__._ZNK14QuadgramScorer8getScoreERKNSt3__112basic_stringIcNS0_11char_traitsIcEENS0_9allocatorIcEEEE, symObjAddr: 0x5A200, symBinAddr: 0x100069600, symSize: 0x0 }
  - { offset: 0x21011, size: 0x8, addend: 0x0, symName: _.str.93, symObjAddr: 0x5A220, symBinAddr: 0x100069620, symSize: 0x0 }
  - { offset: 0x2102E, size: 0x8, addend: 0x0, symName: _.str.94, symObjAddr: 0x5A240, symBinAddr: 0x100069640, symSize: 0x0 }
  - { offset: 0x21A0F, size: 0x8, addend: 0x0, symName: __ZNSt3__16vectorINS_12basic_stringIcNS_11char_traitsIcEENS_9allocatorIcEEEENS4_IS6_EEE26__swap_out_circular_bufferERNS_14__split_bufferIS6_RS7_EE, symObjAddr: 0x154A0, symBinAddr: 0x100018BC0, symSize: 0x6C0 }
  - { offset: 0x21C5E, size: 0x8, addend: 0x0, symName: __ZNSt3__16vectorIiNS_9allocatorIiEEE26__swap_out_circular_bufferERNS_14__split_bufferIiRS2_EE, symObjAddr: 0x1E130, symBinAddr: 0x100021850, symSize: 0x6C0 }
  - { offset: 0x2243C, size: 0x8, addend: 0x0, symName: __ZNSt3__16vectorINS_4pairIiNS_12basic_stringIcNS_11char_traitsIcEENS_9allocatorIcEEEEEENS5_IS8_EEE26__swap_out_circular_bufferERNS_14__split_bufferIS8_RS9_EE, symObjAddr: 0x3D040, symBinAddr: 0x100040760, symSize: 0x6C0 }
  - { offset: 0x22629, size: 0x8, addend: 0x0, symName: __ZNSt3__16vectorIcNS_9allocatorIcEEE26__swap_out_circular_bufferERNS_14__split_bufferIcRS2_EE, symObjAddr: 0x455B0, symBinAddr: 0x100048CD0, symSize: 0x6C0 }
  - { offset: 0x22AAC, size: 0x8, addend: 0x0, symName: ___cxx_global_var_init, symObjAddr: 0x58290, symBinAddr: 0x10005B9B0, symSize: 0x40 }
  - { offset: 0x22AC6, size: 0x8, addend: 0x0, symName: __ZNSt3__112basic_stringIcNS_11char_traitsIcEENS_9allocatorIcEEEC1B8ne180100ILi0EEEPKc, symObjAddr: 0x0, symBinAddr: 0x100003720, symSize: 0x60 }
  - { offset: 0x22B05, size: 0x8, addend: 0x0, symName: ___cxx_global_var_init.1, symObjAddr: 0x582D0, symBinAddr: 0x10005B9F0, symSize: 0x20 }
  - { offset: 0x22B19, size: 0x8, addend: 0x0, symName: __ZNSt3__123mersenne_twister_engineIjLm32ELm624ELm397ELm31ELj2567483615ELm11ELj4294967295ELm7ELj2636928640ELm15ELj4022730752ELm18ELj1812433253EEC1B8ne180100Ev, symObjAddr: 0x60, symBinAddr: 0x100003780, symSize: 0x68 }
  - { offset: 0x22B43, size: 0x8, addend: 0x0, symName: __Z9printMenuv, symObjAddr: 0xC8, symBinAddr: 0x1000037E8, symSize: 0xA40 }
  - { offset: 0x22B5D, size: 0x8, addend: 0x0, symName: __ZNSt3__113basic_ostreamIcNS_11char_traitsIcEEElsB8ne180100EPFRS3_S4_E, symObjAddr: 0xBB0, symBinAddr: 0x1000042D0, symSize: 0x108 }
  - { offset: 0x22B91, size: 0x8, addend: 0x0, symName: _main, symObjAddr: 0x1078, symBinAddr: 0x100004798, symSize: 0x1F88 }
  - { offset: 0x22D5A, size: 0x8, addend: 0x0, symName: __ZNSt3__114basic_ifstreamIcNS_11char_traitsIcEEEC1EPKcj, symObjAddr: 0x3000, symBinAddr: 0x100006720, symSize: 0x690 }
  - { offset: 0x22DA4, size: 0x8, addend: 0x0, symName: __ZNSt3__16vectorINS_12basic_stringIcNS_11char_traitsIcEENS_9allocatorIcEEEENS4_IS6_EEEC1B8ne180100Ev, symObjAddr: 0x3690, symBinAddr: 0x100006DB0, symSize: 0x50 }
  - { offset: 0x22DCE, size: 0x8, addend: 0x0, symName: __ZNSt3__112basic_stringIcNS_11char_traitsIcEENS_9allocatorIcEEEC1B8ne180100Ev, symObjAddr: 0x36E0, symBinAddr: 0x100006E00, symSize: 0x58 }
  - { offset: 0x22DF8, size: 0x8, addend: 0x0, symName: __ZNKSt3__19basic_iosIcNS_11char_traitsIcEEEcvbB8ne180100Ev, symObjAddr: 0x5260, symBinAddr: 0x100008980, symSize: 0xE0 }
  - { offset: 0x22E1E, size: 0x8, addend: 0x0, symName: __ZNSt3__16vectorINS_12basic_stringIcNS_11char_traitsIcEENS_9allocatorIcEEEENS4_IS6_EEE9push_backB8ne180100ERKS6_, symObjAddr: 0x5340, symBinAddr: 0x100008A60, symSize: 0x230 }
  - { offset: 0x22E62, size: 0x8, addend: 0x0, symName: __ZNSt3__16vectorIiNS_9allocatorIiEEEC1B8ne180100Ev, symObjAddr: 0x5570, symBinAddr: 0x100008C90, symSize: 0x58 }
  - { offset: 0x22F11, size: 0x8, addend: 0x0, symName: __ZNSt3__118basic_stringstreamIcNS_11char_traitsIcEENS_9allocatorIcEEEC1B8ne180100ERKNS_12basic_stringIcS2_S4_EEj, symObjAddr: 0x5890, symBinAddr: 0x100008FB0, symSize: 0x3D8 }
  - { offset: 0x22F59, size: 0x8, addend: 0x0, symName: __ZNSt3__16vectorIiNS_9allocatorIiEEE9push_backB8ne180100ERKi, symObjAddr: 0x6C10, symBinAddr: 0x10000A330, symSize: 0x230 }
  - { offset: 0x22FA3, size: 0x8, addend: 0x0, symName: __ZNSt3__118basic_stringstreamIcNS_11char_traitsIcEENS_9allocatorIcEEED1Ev, symObjAddr: 0x6E40, symBinAddr: 0x10000A560, symSize: 0x70 }
  - { offset: 0x2316C, size: 0x8, addend: 0x0, symName: __ZN14QuadgramScorerC1ERKNSt3__16vectorINS0_12basic_stringIcNS0_11char_traitsIcEENS0_9allocatorIcEEEENS5_IS7_EEEERKNS1_IiNS5_IiEEEE, symObjAddr: 0x6EB0, symBinAddr: 0x10000A5D0, symSize: 0x68 }
  - { offset: 0x231B2, size: 0x8, addend: 0x0, symName: __ZN6Random4seedEi, symObjAddr: 0x6F18, symBinAddr: 0x10000A638, symSize: 0x30 }
  - { offset: 0x231D4, size: 0x8, addend: 0x0, symName: __Z16runCaesarEncryptv, symObjAddr: 0x7118, symBinAddr: 0x10000A838, symSize: 0x560 }
  - { offset: 0x23234, size: 0x8, addend: 0x0, symName: __Z16runCaesarDecryptRKNSt3__16vectorINS_12basic_stringIcNS_11char_traitsIcEENS_9allocatorIcEEEENS4_IS6_EEEE, symObjAddr: 0x7678, symBinAddr: 0x10000AD98, symSize: 0xB20 }
  - { offset: 0x23332, size: 0x8, addend: 0x0, symName: __Z25computeEnglishnessCommandRK14QuadgramScorer, symObjAddr: 0x8198, symBinAddr: 0x10000B8B8, symSize: 0x5C0 }
  - { offset: 0x23393, size: 0x8, addend: 0x0, symName: __Z27applyRandSubstCipherCommandv, symObjAddr: 0x8758, symBinAddr: 0x10000BE78, symSize: 0x530 }
  - { offset: 0x233E8, size: 0x8, addend: 0x0, symName: __Z25decryptSubstCipherCommandRK14QuadgramScorer, symObjAddr: 0x8C88, symBinAddr: 0x10000C3A8, symSize: 0x570 }
  - { offset: 0x2344D, size: 0x8, addend: 0x0, symName: __Z29decryptSubstCipherFileCommandRK14QuadgramScorer, symObjAddr: 0x91F8, symBinAddr: 0x10000C918, symSize: 0x1318 }
  - { offset: 0x2352B, size: 0x8, addend: 0x0, symName: __ZNKSt3__19basic_iosIcNS_11char_traitsIcEEE3eofB8ne180100Ev, symObjAddr: 0xA510, symBinAddr: 0x10000DC30, symSize: 0x100 }
  - { offset: 0x23551, size: 0x8, addend: 0x0, symName: __ZN14QuadgramScorerD1Ev, symObjAddr: 0xA610, symBinAddr: 0x10000DD30, symSize: 0x50 }
  - { offset: 0x2357D, size: 0x8, addend: 0x0, symName: __ZNSt3__16vectorIiNS_9allocatorIiEEED1B8ne180100Ev, symObjAddr: 0xA660, symBinAddr: 0x10000DD80, symSize: 0x50 }
  - { offset: 0x235A7, size: 0x8, addend: 0x0, symName: __ZNSt3__16vectorINS_12basic_stringIcNS_11char_traitsIcEENS_9allocatorIcEEEENS4_IS6_EEED1B8ne180100Ev, symObjAddr: 0xA6B0, symBinAddr: 0x10000DDD0, symSize: 0x50 }
  - { offset: 0x235D7, size: 0x8, addend: 0x0, symName: __ZNSt3__114basic_ifstreamIcNS_11char_traitsIcEEED1Ev, symObjAddr: 0xA700, symBinAddr: 0x10000DE20, symSize: 0x78 }
  - { offset: 0x23603, size: 0x8, addend: 0x0, symName: __Z3rotci, symObjAddr: 0xA778, symBinAddr: 0x10000DE98, symSize: 0x140 }
  - { offset: 0x2364B, size: 0x8, addend: 0x0, symName: __Z3rotRKNSt3__112basic_stringIcNS_11char_traitsIcEENS_9allocatorIcEEEEi, symObjAddr: 0xA8B8, symBinAddr: 0x10000DFD8, symSize: 0x548 }
  - { offset: 0x236E3, size: 0x8, addend: 0x0, symName: __ZNKSt3__112basic_stringIcNS_11char_traitsIcEENS_9allocatorIcEEE5beginB8ne180100Ev, symObjAddr: 0xAE00, symBinAddr: 0x10000E520, symSize: 0x90 }
  - { offset: 0x23709, size: 0x8, addend: 0x0, symName: __ZNKSt3__112basic_stringIcNS_11char_traitsIcEENS_9allocatorIcEEE3endB8ne180100Ev, symObjAddr: 0xAE90, symBinAddr: 0x10000E5B0, symSize: 0xD8 }
  - { offset: 0x2372F, size: 0x8, addend: 0x0, symName: __ZNKSt3__111__wrap_iterIPKcEdeB8ne180100Ev, symObjAddr: 0xB000, symBinAddr: 0x10000E720, symSize: 0xA8 }
  - { offset: 0x23754, size: 0x8, addend: 0x0, symName: __Z7isalphai, symObjAddr: 0xB0A8, symBinAddr: 0x10000E7C8, symSize: 0x30 }
  - { offset: 0x23780, size: 0x8, addend: 0x0, symName: __Z7toupperi, symObjAddr: 0xB0D8, symBinAddr: 0x10000E7F8, symSize: 0x28 }
  - { offset: 0x237AF, size: 0x8, addend: 0x0, symName: __ZNSt3__112basic_stringIcNS_11char_traitsIcEENS_9allocatorIcEEEpLB8ne180100Ec, symObjAddr: 0xB100, symBinAddr: 0x10000E820, symSize: 0x98 }
  - { offset: 0x237E3, size: 0x8, addend: 0x0, symName: __Z7isspacei, symObjAddr: 0xB198, symBinAddr: 0x10000E8B8, symSize: 0x28 }
  - { offset: 0x23812, size: 0x8, addend: 0x0, symName: __ZNSt3__111__wrap_iterIPKcEppB8ne180100Ev, symObjAddr: 0xB1C0, symBinAddr: 0x10000E8E0, symSize: 0x138 }
  - { offset: 0x23837, size: 0x8, addend: 0x0, symName: __Z3rotRNSt3__16vectorINS_12basic_stringIcNS_11char_traitsIcEENS_9allocatorIcEEEENS4_IS6_EEEEi, symObjAddr: 0xB3F8, symBinAddr: 0x10000EB18, symSize: 0x3A8 }
  - { offset: 0x238CB, size: 0x8, addend: 0x0, symName: __ZNSt3__16vectorINS_12basic_stringIcNS_11char_traitsIcEENS_9allocatorIcEEEENS4_IS6_EEE5beginB8ne180100Ev, symObjAddr: 0xB7A0, symBinAddr: 0x10000EEC0, symSize: 0x90 }
  - { offset: 0x238F3, size: 0x8, addend: 0x0, symName: __ZNSt3__16vectorINS_12basic_stringIcNS_11char_traitsIcEENS_9allocatorIcEEEENS4_IS6_EEE3endB8ne180100Ev, symObjAddr: 0xB830, symBinAddr: 0x10000EF50, symSize: 0x98 }
  - { offset: 0x2391B, size: 0x8, addend: 0x0, symName: __ZNKSt3__111__wrap_iterIPNS_12basic_stringIcNS_11char_traitsIcEENS_9allocatorIcEEEEEdeB8ne180100Ev, symObjAddr: 0xB960, symBinAddr: 0x10000F080, symSize: 0xB0 }
  - { offset: 0x23941, size: 0x8, addend: 0x0, symName: __ZNSt3__112basic_stringIcNS_11char_traitsIcEENS_9allocatorIcEEEaSB8ne180100EOS5_, symObjAddr: 0xBA10, symBinAddr: 0x10000F130, symSize: 0xC0 }
  - { offset: 0x23976, size: 0x8, addend: 0x0, symName: __ZNSt3__111__wrap_iterIPNS_12basic_stringIcNS_11char_traitsIcEENS_9allocatorIcEEEEEppB8ne180100Ev, symObjAddr: 0xBAD0, symBinAddr: 0x10000F1F0, symSize: 0x138 }
  - { offset: 0x2399B, size: 0x8, addend: 0x0, symName: __Z5cleanRKNSt3__112basic_stringIcNS_11char_traitsIcEENS_9allocatorIcEEEE, symObjAddr: 0xBC08, symBinAddr: 0x10000F328, symSize: 0x490 }
  - { offset: 0x23A2B, size: 0x8, addend: 0x0, symName: __Z13splitBySpacesRKNSt3__112basic_stringIcNS_11char_traitsIcEENS_9allocatorIcEEEE, symObjAddr: 0xC098, symBinAddr: 0x10000F7B8, symSize: 0x748 }
  - { offset: 0x23ABC, size: 0x8, addend: 0x0, symName: __ZNSt3__119basic_istringstreamIcNS_11char_traitsIcEENS_9allocatorIcEEEC1B8ne180100ERKNS_12basic_stringIcS2_S4_EEj, symObjAddr: 0xC7E0, symBinAddr: 0x10000FF00, symSize: 0x340 }
  - { offset: 0x23B04, size: 0x8, addend: 0x0, symName: __ZNSt3__16vectorINS_12basic_stringIcNS_11char_traitsIcEENS_9allocatorIcEEEENS4_IS6_EEE9push_backB8ne180100EOS6_, symObjAddr: 0xCB20, symBinAddr: 0x100010240, symSize: 0x230 }
  - { offset: 0x23B50, size: 0x8, addend: 0x0, symName: __ZNSt3__119basic_istringstreamIcNS_11char_traitsIcEENS_9allocatorIcEEED1Ev, symObjAddr: 0xCD50, symBinAddr: 0x100010470, symSize: 0x78 }
  - { offset: 0x23B7C, size: 0x8, addend: 0x0, symName: __Z14joinWithSpacesRKNSt3__16vectorINS_12basic_stringIcNS_11char_traitsIcEENS_9allocatorIcEEEENS4_IS6_EEEE, symObjAddr: 0xCDC8, symBinAddr: 0x1000104E8, symSize: 0x508 }
  - { offset: 0x23C07, size: 0x8, addend: 0x0, symName: __ZNSt3__119basic_ostringstreamIcNS_11char_traitsIcEENS_9allocatorIcEEEC1B8ne180100Ev, symObjAddr: 0xD2D0, symBinAddr: 0x1000109F0, symSize: 0x2F0 }
  - { offset: 0x23C31, size: 0x8, addend: 0x0, symName: __ZNKSt3__16vectorINS_12basic_stringIcNS_11char_traitsIcEENS_9allocatorIcEEEENS4_IS6_EEE4sizeB8ne180100Ev, symObjAddr: 0xD5C0, symBinAddr: 0x100010CE0, symSize: 0xD0 }
  - { offset: 0x23C57, size: 0x8, addend: 0x0, symName: __ZNKSt3__16vectorINS_12basic_stringIcNS_11char_traitsIcEENS_9allocatorIcEEEENS4_IS6_EEEixB8ne180100Em, symObjAddr: 0xD690, symBinAddr: 0x100010DB0, symSize: 0x110 }
  - { offset: 0x23C8E, size: 0x8, addend: 0x0, symName: __ZNKRSt3__119basic_ostringstreamIcNS_11char_traitsIcEENS_9allocatorIcEEE3strB8ne180100Ev, symObjAddr: 0xD7A0, symBinAddr: 0x100010EC0, symSize: 0x1D0 }
  - { offset: 0x23CBA, size: 0x8, addend: 0x0, symName: __ZNSt3__119basic_ostringstreamIcNS_11char_traitsIcEENS_9allocatorIcEEED1Ev, symObjAddr: 0xD970, symBinAddr: 0x100011090, symSize: 0x78 }
  - { offset: 0x23CE6, size: 0x8, addend: 0x0, symName: __Z10numWordsInRKNSt3__16vectorINS_12basic_stringIcNS_11char_traitsIcEENS_9allocatorIcEEEENS4_IS6_EEEESA_, symObjAddr: 0xD9E8, symBinAddr: 0x100011108, symSize: 0x4B8 }
  - { offset: 0x23D8D, size: 0x8, addend: 0x0, symName: __ZNKSt3__16vectorINS_12basic_stringIcNS_11char_traitsIcEENS_9allocatorIcEEEENS4_IS6_EEE5beginB8ne180100Ev, symObjAddr: 0xDEA0, symBinAddr: 0x1000115C0, symSize: 0x90 }
  - { offset: 0x23DB5, size: 0x8, addend: 0x0, symName: __ZNKSt3__16vectorINS_12basic_stringIcNS_11char_traitsIcEENS_9allocatorIcEEEENS4_IS6_EEE3endB8ne180100Ev, symObjAddr: 0xDF30, symBinAddr: 0x100011650, symSize: 0x98 }
  - { offset: 0x23DDD, size: 0x8, addend: 0x0, symName: __ZNKSt3__111__wrap_iterIPKNS_12basic_stringIcNS_11char_traitsIcEENS_9allocatorIcEEEEEdeB8ne180100Ev, symObjAddr: 0xE060, symBinAddr: 0x100011780, symSize: 0xB8 }
  - { offset: 0x23E03, size: 0x8, addend: 0x0, symName: __ZNSt3__111__wrap_iterIPKNS_12basic_stringIcNS_11char_traitsIcEENS_9allocatorIcEEEEEppB8ne180100Ev, symObjAddr: 0xE370, symBinAddr: 0x100011A90, symSize: 0x130 }
  - { offset: 0x23E29, size: 0x8, addend: 0x0, symName: __ZNSt3__16vectorINS_4pairIiNS_12basic_stringIcNS_11char_traitsIcEENS_9allocatorIcEEEEEENS5_IS8_EEEC1B8ne180100Ev, symObjAddr: 0xE4A0, symBinAddr: 0x100011BC0, symSize: 0x50 }
  - { offset: 0x23E53, size: 0x8, addend: 0x0, symName: __ZNSt3__16vectorINS_12basic_stringIcNS_11char_traitsIcEENS_9allocatorIcEEEENS4_IS6_EEEC1ERKS8_, symObjAddr: 0xE4F0, symBinAddr: 0x100011C10, symSize: 0x60 }
  - { offset: 0x23E8E, size: 0x8, addend: 0x0, symName: __ZNSt3__16vectorINS_4pairIiNS_12basic_stringIcNS_11char_traitsIcEENS_9allocatorIcEEEEEENS5_IS8_EEE9push_backB8ne180100EOS8_, symObjAddr: 0xE550, symBinAddr: 0x100011C70, symSize: 0x230 }
  - { offset: 0x23ED8, size: 0x8, addend: 0x0, symName: __ZNSt3__14pairIiNS_12basic_stringIcNS_11char_traitsIcEENS_9allocatorIcEEEEEC1B8ne180100IRiS6_TnNS_9enable_ifIXclsr10_CheckArgsE17__enable_implicitIT_T0_EEEiE4typeELi0EEEOSB_OSC_, symObjAddr: 0xE780, symBinAddr: 0x100011EA0, symSize: 0x60 }
  - { offset: 0x23F36, size: 0x8, addend: 0x0, symName: __ZNSt3__14pairIiNS_12basic_stringIcNS_11char_traitsIcEENS_9allocatorIcEEEEED1Ev, symObjAddr: 0xE7E0, symBinAddr: 0x100011F00, symSize: 0x50 }
  - { offset: 0x23F62, size: 0x8, addend: 0x0, symName: __ZNKSt3__16vectorINS_4pairIiNS_12basic_stringIcNS_11char_traitsIcEENS_9allocatorIcEEEEEENS5_IS8_EEE5emptyB8ne180100Ev, symObjAddr: 0xE830, symBinAddr: 0x100011F50, symSize: 0xC0 }
  - { offset: 0x23F88, size: 0x8, addend: 0x0, symName: __ZNSt3__16vectorINS_4pairIiNS_12basic_stringIcNS_11char_traitsIcEENS_9allocatorIcEEEEEENS5_IS8_EEE5beginB8ne180100Ev, symObjAddr: 0xE8F0, symBinAddr: 0x100012010, symSize: 0x90 }
  - { offset: 0x23FAE, size: 0x8, addend: 0x0, symName: __ZNSt3__16vectorINS_4pairIiNS_12basic_stringIcNS_11char_traitsIcEENS_9allocatorIcEEEEEENS5_IS8_EEE3endB8ne180100Ev, symObjAddr: 0xE980, symBinAddr: 0x1000120A0, symSize: 0x98 }
  - { offset: 0x23FD4, size: 0x8, addend: 0x0, symName: __ZNKSt3__111__wrap_iterIPNS_4pairIiNS_12basic_stringIcNS_11char_traitsIcEENS_9allocatorIcEEEEEEEdeB8ne180100Ev, symObjAddr: 0xEAB0, symBinAddr: 0x1000121D0, symSize: 0xB0 }
  - { offset: 0x23FFA, size: 0x8, addend: 0x0, symName: __ZNSt3__111__wrap_iterIPNS_4pairIiNS_12basic_stringIcNS_11char_traitsIcEENS_9allocatorIcEEEEEEEppB8ne180100Ev, symObjAddr: 0xEB60, symBinAddr: 0x100012280, symSize: 0x130 }
  - { offset: 0x24020, size: 0x8, addend: 0x0, symName: __ZNSt3__16vectorINS_4pairIiNS_12basic_stringIcNS_11char_traitsIcEENS_9allocatorIcEEEEEENS5_IS8_EEED1B8ne180100Ev, symObjAddr: 0xEC90, symBinAddr: 0x1000123B0, symSize: 0x58 }
  - { offset: 0x24049, size: 0x8, addend: 0x0, symName: __Z16applySubstCipherRKNSt3__16vectorIcNS_9allocatorIcEEEERKNS_12basic_stringIcNS_11char_traitsIcEES2_EE, symObjAddr: 0xECE8, symBinAddr: 0x100012408, symSize: 0x5E8 }
  - { offset: 0x240E1, size: 0x8, addend: 0x0, symName: __ZNKSt3__16vectorIcNS_9allocatorIcEEEixB8ne180100Em, symObjAddr: 0xF2D0, symBinAddr: 0x1000129F0, symSize: 0xF8 }
  - { offset: 0x24115, size: 0x8, addend: 0x0, symName: __Z20genRandomSubstCipherv, symObjAddr: 0xF3C8, symBinAddr: 0x100012AE8, symSize: 0x478 }
  - { offset: 0x24196, size: 0x8, addend: 0x0, symName: __ZNSt3__16vectorIcNS_9allocatorIcEEED1B8ne180100Ev, symObjAddr: 0xF840, symBinAddr: 0x100012F60, symSize: 0x58 }
  - { offset: 0x241BF, size: 0x8, addend: 0x0, symName: __Z11scoreStringRK14QuadgramScorerRKNSt3__112basic_stringIcNS2_11char_traitsIcEENS2_9allocatorIcEEEE, symObjAddr: 0xF898, symBinAddr: 0x100012FB8, symSize: 0x358 }
  - { offset: 0x24246, size: 0x8, addend: 0x0, symName: __ZNKSt3__112basic_stringIcNS_11char_traitsIcEENS_9allocatorIcEEE4sizeB8ne180100Ev, symObjAddr: 0xFBF0, symBinAddr: 0x100013310, symSize: 0x80 }
  - { offset: 0x2426C, size: 0x8, addend: 0x0, symName: __ZNKSt3__112basic_stringIcNS_11char_traitsIcEENS_9allocatorIcEEE6substrB8ne180100Emm, symObjAddr: 0xFC70, symBinAddr: 0x100013390, symSize: 0x230 }
  - { offset: 0x242B3, size: 0x8, addend: 0x0, symName: __ZNK14QuadgramScorer8getScoreERKNSt3__112basic_stringIcNS0_11char_traitsIcEENS0_9allocatorIcEEEE, symObjAddr: 0xFEA0, symBinAddr: 0x1000135C0, symSize: 0x448 }
  - { offset: 0x242FA, size: 0x8, addend: 0x0, symName: __Z18decryptSubstCipherRK14QuadgramScorerRKNSt3__112basic_stringIcNS2_11char_traitsIcEENS2_9allocatorIcEEEE, symObjAddr: 0x102E8, symBinAddr: 0x100013A08, symSize: 0xA18 }
  - { offset: 0x24410, size: 0x8, addend: 0x0, symName: __ZNSt3__16vectorIcNS_9allocatorIcEEEC1ERKS3_, symObjAddr: 0x10D00, symBinAddr: 0x100014420, symSize: 0x68 }
  - { offset: 0x2444B, size: 0x8, addend: 0x0, symName: __ZN6Random7randIntEi, symObjAddr: 0x10D68, symBinAddr: 0x100014488, symSize: 0x90 }
  - { offset: 0x2446E, size: 0x8, addend: 0x0, symName: __ZNSt3__16vectorIcNS_9allocatorIcEEEixB8ne180100Em, symObjAddr: 0x10F90, symBinAddr: 0x1000146B0, symSize: 0xF0 }
  - { offset: 0x244A5, size: 0x8, addend: 0x0, symName: __ZNSt3__16vectorIcNS_9allocatorIcEEEaSB8ne180100ERKS3_, symObjAddr: 0x11080, symBinAddr: 0x1000147A0, symSize: 0x190 }
  - { offset: 0x244DC, size: 0x8, addend: 0x0, symName: __ZNSt3__114basic_ifstreamIcNS_11char_traitsIcEEEC1ERKNS_12basic_stringIcS2_NS_9allocatorIcEEEEj, symObjAddr: 0x11210, symBinAddr: 0x100014930, symSize: 0x6D0 }
  - { offset: 0x24526, size: 0x8, addend: 0x0, symName: __ZNKSt3__19basic_iosIcNS_11char_traitsIcEEEntB8ne180100Ev, symObjAddr: 0x118E0, symBinAddr: 0x100015000, symSize: 0xE0 }
  - { offset: 0x2454C, size: 0x8, addend: 0x0, symName: __ZNSt3__118basic_stringstreamIcNS_11char_traitsIcEENS_9allocatorIcEEEC1B8ne180100Ev, symObjAddr: 0x119C0, symBinAddr: 0x1000150E0, symSize: 0x380 }
  - { offset: 0x24576, size: 0x8, addend: 0x0, symName: __ZNKSt3__114basic_ifstreamIcNS_11char_traitsIcEEE5rdbufEv, symObjAddr: 0x11D40, symBinAddr: 0x100015460, symSize: 0xE0 }
  - { offset: 0x2459E, size: 0x8, addend: 0x0, symName: __ZNKRSt3__118basic_stringstreamIcNS_11char_traitsIcEENS_9allocatorIcEEE3strB8ne180100Ev, symObjAddr: 0x11E20, symBinAddr: 0x100015540, symSize: 0x1D0 }
  - { offset: 0x245E1, size: 0x8, addend: 0x0, symName: __ZNSt3__114basic_ofstreamIcNS_11char_traitsIcEEEC1ERKNS_12basic_stringIcS2_NS_9allocatorIcEEEEj, symObjAddr: 0x11FF0, symBinAddr: 0x100015710, symSize: 0x6D0 }
  - { offset: 0x24631, size: 0x8, addend: 0x0, symName: __ZNSt3__114basic_ofstreamIcNS_11char_traitsIcEEED1Ev, symObjAddr: 0x126C0, symBinAddr: 0x100015DE0, symSize: 0x70 }
  - { offset: 0x2465E, size: 0x8, addend: 0x0, symName: __ZNSt3__112basic_stringIcNS_11char_traitsIcEENS_9allocatorIcEEEC2B8ne180100ILi0EEEPKc, symObjAddr: 0x12730, symBinAddr: 0x100015E50, symSize: 0x1C0 }
  - { offset: 0x246A5, size: 0x8, addend: 0x0, symName: __ZNSt3__117__compressed_pairINS_12basic_stringIcNS_11char_traitsIcEENS_9allocatorIcEEE5__repES5_EC1B8ne180100INS_18__default_init_tagESA_EEOT_OT0_, symObjAddr: 0x128F0, symBinAddr: 0x100016010, symSize: 0x68 }
  - { offset: 0x246FD, size: 0x8, addend: 0x0, symName: __ZNSt3__111char_traitsIcE6lengthB8ne180100EPKc, symObjAddr: 0x12958, symBinAddr: 0x100016078, symSize: 0x48 }
  - { offset: 0x24720, size: 0x8, addend: 0x0, symName: __ZNSt3__117__compressed_pairINS_12basic_stringIcNS_11char_traitsIcEENS_9allocatorIcEEE5__repES5_EC2B8ne180100INS_18__default_init_tagESA_EEOT_OT0_, symObjAddr: 0x129A0, symBinAddr: 0x1000160C0, symSize: 0xB0 }
  - { offset: 0x24778, size: 0x8, addend: 0x0, symName: __ZNSt3__122__compressed_pair_elemINS_12basic_stringIcNS_11char_traitsIcEENS_9allocatorIcEEE5__repELi0ELb0EEC2B8ne180100ENS_18__default_init_tagE, symObjAddr: 0x12A50, symBinAddr: 0x100016170, symSize: 0x50 }
  - { offset: 0x247AC, size: 0x8, addend: 0x0, symName: __ZNSt3__122__compressed_pair_elemINS_9allocatorIcEELi1ELb1EEC2B8ne180100ENS_18__default_init_tagE, symObjAddr: 0x12AA0, symBinAddr: 0x1000161C0, symSize: 0x60 }
  - { offset: 0x247E0, size: 0x8, addend: 0x0, symName: __ZNSt3__19allocatorIcEC2B8ne180100Ev, symObjAddr: 0x12B00, symBinAddr: 0x100016220, symSize: 0x60 }
  - { offset: 0x2480A, size: 0x8, addend: 0x0, symName: __ZNSt3__116__non_trivial_ifILb1ENS_9allocatorIcEEEC2B8ne180100Ev, symObjAddr: 0x12B60, symBinAddr: 0x100016280, symSize: 0x48 }
  - { offset: 0x24834, size: 0x8, addend: 0x0, symName: __ZNSt3__16vectorINS_12basic_stringIcNS_11char_traitsIcEENS_9allocatorIcEEEENS4_IS6_EEEC2B8ne180100Ev, symObjAddr: 0x12BE0, symBinAddr: 0x100016300, symSize: 0x240 }
  - { offset: 0x24865, size: 0x8, addend: 0x0, symName: __ZNSt3__117__compressed_pairIPNS_12basic_stringIcNS_11char_traitsIcEENS_9allocatorIcEEEENS4_IS6_EEEC1B8ne180100IDnNS_18__default_init_tagEEEOT_OT0_, symObjAddr: 0x12E20, symBinAddr: 0x100016540, symSize: 0x60 }
  - { offset: 0x248BD, size: 0x8, addend: 0x0, symName: __ZNSt3__117__compressed_pairIPNS_12basic_stringIcNS_11char_traitsIcEENS_9allocatorIcEEEENS4_IS6_EEEC2B8ne180100IDnNS_18__default_init_tagEEEOT_OT0_, symObjAddr: 0x12E80, symBinAddr: 0x1000165A0, symSize: 0xF0 }
  - { offset: 0x24915, size: 0x8, addend: 0x0, symName: __ZNSt3__122__compressed_pair_elemIPNS_12basic_stringIcNS_11char_traitsIcEENS_9allocatorIcEEEELi0ELb0EEC2B8ne180100IDnvEEOT_, symObjAddr: 0x12F70, symBinAddr: 0x100016690, symSize: 0x80 }
  - { offset: 0x24957, size: 0x8, addend: 0x0, symName: __ZNSt3__122__compressed_pair_elemINS_9allocatorINS_12basic_stringIcNS_11char_traitsIcEENS1_IcEEEEEELi1ELb1EEC2B8ne180100ENS_18__default_init_tagE, symObjAddr: 0x12FF0, symBinAddr: 0x100016710, symSize: 0x60 }
  - { offset: 0x2498B, size: 0x8, addend: 0x0, symName: __ZNSt3__19allocatorINS_12basic_stringIcNS_11char_traitsIcEENS0_IcEEEEEC2B8ne180100Ev, symObjAddr: 0x13050, symBinAddr: 0x100016770, symSize: 0x60 }
  - { offset: 0x249B5, size: 0x8, addend: 0x0, symName: __ZNSt3__116__non_trivial_ifILb1ENS_9allocatorINS_12basic_stringIcNS_11char_traitsIcEENS1_IcEEEEEEEC2B8ne180100Ev, symObjAddr: 0x130B0, symBinAddr: 0x1000167D0, symSize: 0x40 }
  - { offset: 0x249DF, size: 0x8, addend: 0x0, symName: __ZNSt3__112basic_stringIcNS_11char_traitsIcEENS_9allocatorIcEEEC2B8ne180100Ev, symObjAddr: 0x130F0, symBinAddr: 0x100016810, symSize: 0x1C0 }
  - { offset: 0x24A10, size: 0x8, addend: 0x0, symName: __ZNSt3__117__compressed_pairINS_12basic_stringIcNS_11char_traitsIcEENS_9allocatorIcEEE5__repES5_EC1B8ne180100INS_16__value_init_tagENS_18__default_init_tagEEEOT_OT0_, symObjAddr: 0x132B0, symBinAddr: 0x1000169D0, symSize: 0x60 }
  - { offset: 0x24A68, size: 0x8, addend: 0x0, symName: __ZNKSt3__112basic_stringIcNS_11char_traitsIcEENS_9allocatorIcEEE14__annotate_newB8ne180100Em, symObjAddr: 0x13310, symBinAddr: 0x100016A30, symSize: 0x50 }
  - { offset: 0x24A9D, size: 0x8, addend: 0x0, symName: __ZNSt3__117__compressed_pairINS_12basic_stringIcNS_11char_traitsIcEENS_9allocatorIcEEE5__repES5_EC2B8ne180100INS_16__value_init_tagENS_18__default_init_tagEEEOT_OT0_, symObjAddr: 0x13360, symBinAddr: 0x100016A80, symSize: 0xB0 }
  - { offset: 0x24AF5, size: 0x8, addend: 0x0, symName: __ZNSt3__122__compressed_pair_elemINS_12basic_stringIcNS_11char_traitsIcEENS_9allocatorIcEEE5__repELi0ELb0EEC2B8ne180100ENS_16__value_init_tagE, symObjAddr: 0x13410, symBinAddr: 0x100016B30, symSize: 0x60 }
  - { offset: 0x24B29, size: 0x8, addend: 0x0, symName: __ZNSt3__16vectorINS_12basic_stringIcNS_11char_traitsIcEENS_9allocatorIcEEEENS4_IS6_EEE9__end_capB8ne180100Ev, symObjAddr: 0x13470, symBinAddr: 0x100016B90, symSize: 0xC0 }
  - { offset: 0x24B4F, size: 0x8, addend: 0x0, symName: __ZNSt3__16vectorINS_12basic_stringIcNS_11char_traitsIcEENS_9allocatorIcEEEENS4_IS6_EEE22__construct_one_at_endB8ne180100IJRKS6_EEEvDpOT_, symObjAddr: 0x13530, symBinAddr: 0x100016C50, symSize: 0x3F0 }
  - { offset: 0x24BA4, size: 0x8, addend: 0x0, symName: __ZNSt3__16vectorINS_12basic_stringIcNS_11char_traitsIcEENS_9allocatorIcEEEENS4_IS6_EEE21__push_back_slow_pathIRKS6_EEPS6_OT_, symObjAddr: 0x13920, symBinAddr: 0x100017040, symSize: 0x4E0 }
  - { offset: 0x24C07, size: 0x8, addend: 0x0, symName: __ZNSt3__117__compressed_pairIPNS_12basic_stringIcNS_11char_traitsIcEENS_9allocatorIcEEEENS4_IS6_EEE5firstB8ne180100Ev, symObjAddr: 0x13E00, symBinAddr: 0x100017520, symSize: 0xE0 }
  - { offset: 0x24C2D, size: 0x8, addend: 0x0, symName: __ZNSt3__122__compressed_pair_elemIPNS_12basic_stringIcNS_11char_traitsIcEENS_9allocatorIcEEEELi0ELb0EE5__getB8ne180100Ev, symObjAddr: 0x13EE0, symBinAddr: 0x100017600, symSize: 0x80 }
  - { offset: 0x24C6F, size: 0x8, addend: 0x0, symName: __ZNSt3__16vectorINS_12basic_stringIcNS_11char_traitsIcEENS_9allocatorIcEEEENS4_IS6_EEE21_ConstructTransactionC1B8ne180100ERS8_m, symObjAddr: 0x13F60, symBinAddr: 0x100017680, symSize: 0x68 }
  - { offset: 0x24CB7, size: 0x8, addend: 0x0, symName: __ZNSt3__116allocator_traitsINS_9allocatorINS_12basic_stringIcNS_11char_traitsIcEENS1_IcEEEEEEE9constructB8ne180100IS6_JRKS6_EvvEEvRS7_PT_DpOT0_, symObjAddr: 0x13FC8, symBinAddr: 0x1000176E8, symSize: 0x68 }
  - { offset: 0x24D0B, size: 0x8, addend: 0x0, symName: __ZNSt3__16vectorINS_12basic_stringIcNS_11char_traitsIcEENS_9allocatorIcEEEENS4_IS6_EEE7__allocB8ne180100Ev, symObjAddr: 0x14030, symBinAddr: 0x100017750, symSize: 0xB8 }
  - { offset: 0x24D31, size: 0x8, addend: 0x0, symName: __ZNSt3__16vectorINS_12basic_stringIcNS_11char_traitsIcEENS_9allocatorIcEEEENS4_IS6_EEE21_ConstructTransactionD1B8ne180100Ev, symObjAddr: 0x14100, symBinAddr: 0x100017820, symSize: 0x50 }
  - { offset: 0x24D5B, size: 0x8, addend: 0x0, symName: __ZNSt3__16vectorINS_12basic_stringIcNS_11char_traitsIcEENS_9allocatorIcEEEENS4_IS6_EEE21_ConstructTransactionC2B8ne180100ERS8_m, symObjAddr: 0x14150, symBinAddr: 0x100017870, symSize: 0x2C0 }
  - { offset: 0x24DA3, size: 0x8, addend: 0x0, symName: __ZNKSt3__16vectorINS_12basic_stringIcNS_11char_traitsIcEENS_9allocatorIcEEEENS4_IS6_EEE19__annotate_increaseB8ne180100Em, symObjAddr: 0x14410, symBinAddr: 0x100017B30, symSize: 0x1C0 }
  - { offset: 0x24DD8, size: 0x8, addend: 0x0, symName: __ZNKSt3__16vectorINS_12basic_stringIcNS_11char_traitsIcEENS_9allocatorIcEEEENS4_IS6_EEE31__annotate_contiguous_containerB8ne180100EPKvSA_, symObjAddr: 0x145D0, symBinAddr: 0x100017CF0, symSize: 0x100 }
  - { offset: 0x24E3A, size: 0x8, addend: 0x0, symName: __ZNKSt3__16vectorINS_12basic_stringIcNS_11char_traitsIcEENS_9allocatorIcEEEENS4_IS6_EEE4dataB8ne180100Ev, symObjAddr: 0x146D0, symBinAddr: 0x100017DF0, symSize: 0x80 }
  - { offset: 0x24E60, size: 0x8, addend: 0x0, symName: __ZNKSt3__16vectorINS_12basic_stringIcNS_11char_traitsIcEENS_9allocatorIcEEEENS4_IS6_EEE8capacityB8ne180100Ev, symObjAddr: 0x14750, symBinAddr: 0x100017E70, symSize: 0x100 }
  - { offset: 0x24E86, size: 0x8, addend: 0x0, symName: __ZNKSt3__16vectorINS_12basic_stringIcNS_11char_traitsIcEENS_9allocatorIcEEEENS4_IS6_EEE9__end_capB8ne180100Ev, symObjAddr: 0x14850, symBinAddr: 0x100017F70, symSize: 0xC0 }
  - { offset: 0x24EAC, size: 0x8, addend: 0x0, symName: __ZNKSt3__117__compressed_pairIPNS_12basic_stringIcNS_11char_traitsIcEENS_9allocatorIcEEEENS4_IS6_EEE5firstB8ne180100Ev, symObjAddr: 0x14910, symBinAddr: 0x100018030, symSize: 0xE0 }
  - { offset: 0x24ED2, size: 0x8, addend: 0x0, symName: __ZNKSt3__122__compressed_pair_elemIPNS_12basic_stringIcNS_11char_traitsIcEENS_9allocatorIcEEEELi0ELb0EE5__getB8ne180100Ev, symObjAddr: 0x149F0, symBinAddr: 0x100018110, symSize: 0x88 }
  - { offset: 0x24EF8, size: 0x8, addend: 0x0, symName: __ZNSt3__117__compressed_pairIPNS_12basic_stringIcNS_11char_traitsIcEENS_9allocatorIcEEEENS4_IS6_EEE6secondB8ne180100Ev, symObjAddr: 0x14BC0, symBinAddr: 0x1000182E0, symSize: 0xC0 }
  - { offset: 0x24F1E, size: 0x8, addend: 0x0, symName: __ZNSt3__122__compressed_pair_elemINS_9allocatorINS_12basic_stringIcNS_11char_traitsIcEENS1_IcEEEEEELi1ELb1EE5__getB8ne180100Ev, symObjAddr: 0x14C80, symBinAddr: 0x1000183A0, symSize: 0x60 }
  - { offset: 0x24F44, size: 0x8, addend: 0x0, symName: __ZNSt3__16vectorINS_12basic_stringIcNS_11char_traitsIcEENS_9allocatorIcEEEENS4_IS6_EEE21_ConstructTransactionD2B8ne180100Ev, symObjAddr: 0x14CE0, symBinAddr: 0x100018400, symSize: 0x2F0 }
  - { offset: 0x24F6E, size: 0x8, addend: 0x0, symName: __ZNKSt3__16vectorINS_12basic_stringIcNS_11char_traitsIcEENS_9allocatorIcEEEENS4_IS6_EEE17__annotate_shrinkB8ne180100Em, symObjAddr: 0x14FD0, symBinAddr: 0x1000186F0, symSize: 0x150 }
  - { offset: 0x24FA3, size: 0x8, addend: 0x0, symName: __ZNKSt3__16vectorINS_12basic_stringIcNS_11char_traitsIcEENS_9allocatorIcEEEENS4_IS6_EEE11__recommendB8ne180100Em, symObjAddr: 0x15120, symBinAddr: 0x100018840, symSize: 0x310 }
  - { offset: 0x24FFD, size: 0x8, addend: 0x0, symName: __ZNSt3__114__split_bufferINS_12basic_stringIcNS_11char_traitsIcEENS_9allocatorIcEEEERNS4_IS6_EEEC1EmmS8_, symObjAddr: 0x15430, symBinAddr: 0x100018B50, symSize: 0x70 }
  - { offset: 0x25051, size: 0x8, addend: 0x0, symName: __ZNSt3__114__split_bufferINS_12basic_stringIcNS_11char_traitsIcEENS_9allocatorIcEEEERNS4_IS6_EEED1Ev, symObjAddr: 0x15B60, symBinAddr: 0x100019280, symSize: 0x50 }
  - { offset: 0x2507B, size: 0x8, addend: 0x0, symName: __ZNKSt3__16vectorINS_12basic_stringIcNS_11char_traitsIcEENS_9allocatorIcEEEENS4_IS6_EEE8max_sizeEv, symObjAddr: 0x15BB0, symBinAddr: 0x1000192D0, symSize: 0x280 }
  - { offset: 0x250A2, size: 0x8, addend: 0x0, symName: __ZNKSt3__16vectorINS_12basic_stringIcNS_11char_traitsIcEENS_9allocatorIcEEEENS4_IS6_EEE20__throw_length_errorB8ne180100Ev, symObjAddr: 0x15E30, symBinAddr: 0x100019550, symSize: 0x78 }
  - { offset: 0x250D3, size: 0x8, addend: 0x0, symName: __ZNSt3__116allocator_traitsINS_9allocatorINS_12basic_stringIcNS_11char_traitsIcEENS1_IcEEEEEEE8max_sizeB8ne180100IS7_vvEEmRKS7_, symObjAddr: 0x16048, symBinAddr: 0x100019768, symSize: 0x48 }
  - { offset: 0x250FE, size: 0x8, addend: 0x0, symName: __ZNKSt3__16vectorINS_12basic_stringIcNS_11char_traitsIcEENS_9allocatorIcEEEENS4_IS6_EEE7__allocB8ne180100Ev, symObjAddr: 0x16090, symBinAddr: 0x1000197B0, symSize: 0xB8 }
  - { offset: 0x25124, size: 0x8, addend: 0x0, symName: __ZNSt3__114numeric_limitsIlE3maxB8ne180100Ev, symObjAddr: 0x16148, symBinAddr: 0x100019868, symSize: 0x20 }
  - { offset: 0x25143, size: 0x8, addend: 0x0, symName: __ZNKSt3__16__lessIvvEclB8ne180100ImmEEbRKT_RKT0_, symObjAddr: 0x16380, symBinAddr: 0x100019AA0, symSize: 0xC8 }
  - { offset: 0x25197, size: 0x8, addend: 0x0, symName: __ZNSt3__114numeric_limitsImE3maxB8ne180100Ev, symObjAddr: 0x16448, symBinAddr: 0x100019B68, symSize: 0x20 }
  - { offset: 0x251AB, size: 0x8, addend: 0x0, symName: __ZNSt3__123__libcpp_numeric_limitsImLb1EE3maxB8ne180100Ev, symObjAddr: 0x16468, symBinAddr: 0x100019B88, symSize: 0x18 }
  - { offset: 0x251BF, size: 0x8, addend: 0x0, symName: __ZNKSt3__117__compressed_pairIPNS_12basic_stringIcNS_11char_traitsIcEENS_9allocatorIcEEEENS4_IS6_EEE6secondB8ne180100Ev, symObjAddr: 0x16480, symBinAddr: 0x100019BA0, symSize: 0xC0 }
  - { offset: 0x251E5, size: 0x8, addend: 0x0, symName: __ZNKSt3__122__compressed_pair_elemINS_9allocatorINS_12basic_stringIcNS_11char_traitsIcEENS1_IcEEEEEELi1ELb1EE5__getB8ne180100Ev, symObjAddr: 0x16540, symBinAddr: 0x100019C60, symSize: 0x68 }
  - { offset: 0x2520B, size: 0x8, addend: 0x0, symName: __ZNSt3__123__libcpp_numeric_limitsIlLb1EE3maxB8ne180100Ev, symObjAddr: 0x165A8, symBinAddr: 0x100019CC8, symSize: 0x20 }
  - { offset: 0x2521F, size: 0x8, addend: 0x0, symName: __ZNSt12length_errorC1B8ne180100EPKc, symObjAddr: 0x16670, symBinAddr: 0x100019D90, symSize: 0x60 }
  - { offset: 0x25257, size: 0x8, addend: 0x0, symName: __ZNSt12length_errorC2B8ne180100EPKc, symObjAddr: 0x166D0, symBinAddr: 0x100019DF0, symSize: 0xD8 }
  - { offset: 0x2528F, size: 0x8, addend: 0x0, symName: __ZNSt3__114__split_bufferINS_12basic_stringIcNS_11char_traitsIcEENS_9allocatorIcEEEERNS4_IS6_EEEC2EmmS8_, symObjAddr: 0x169C0, symBinAddr: 0x10001A0E0, symSize: 0x5B0 }
  - { offset: 0x25308, size: 0x8, addend: 0x0, symName: __ZNSt3__117__compressed_pairIPNS_12basic_stringIcNS_11char_traitsIcEENS_9allocatorIcEEEERNS4_IS6_EEEC1B8ne180100IDnS9_EEOT_OT0_, symObjAddr: 0x16F70, symBinAddr: 0x10001A690, symSize: 0x68 }
  - { offset: 0x25360, size: 0x8, addend: 0x0, symName: __ZNSt3__114__split_bufferINS_12basic_stringIcNS_11char_traitsIcEENS_9allocatorIcEEEERNS4_IS6_EEE7__allocB8ne180100Ev, symObjAddr: 0x17010, symBinAddr: 0x10001A730, symSize: 0xB0 }
  - { offset: 0x25386, size: 0x8, addend: 0x0, symName: __ZNSt3__114__split_bufferINS_12basic_stringIcNS_11char_traitsIcEENS_9allocatorIcEEEERNS4_IS6_EEE9__end_capB8ne180100Ev, symObjAddr: 0x170C0, symBinAddr: 0x10001A7E0, symSize: 0xC0 }
  - { offset: 0x253AC, size: 0x8, addend: 0x0, symName: __ZNSt3__117__compressed_pairIPNS_12basic_stringIcNS_11char_traitsIcEENS_9allocatorIcEEEERNS4_IS6_EEEC2B8ne180100IDnS9_EEOT_OT0_, symObjAddr: 0x17180, symBinAddr: 0x10001A8A0, symSize: 0x130 }
  - { offset: 0x25404, size: 0x8, addend: 0x0, symName: __ZNSt3__122__compressed_pair_elemIRNS_9allocatorINS_12basic_stringIcNS_11char_traitsIcEENS1_IcEEEEEELi1ELb0EEC2B8ne180100IS8_vEEOT_, symObjAddr: 0x172B0, symBinAddr: 0x10001A9D0, symSize: 0xA0 }
  - { offset: 0x25446, size: 0x8, addend: 0x0, symName: __ZNSt3__19allocatorINS_12basic_stringIcNS_11char_traitsIcEENS0_IcEEEEE8allocateB8ne180100Em, symObjAddr: 0x17350, symBinAddr: 0x10001AA70, symSize: 0xB8 }
  - { offset: 0x2547A, size: 0x8, addend: 0x0, symName: __ZNSt3__117__compressed_pairIPNS_12basic_stringIcNS_11char_traitsIcEENS_9allocatorIcEEEERNS4_IS6_EEE6secondB8ne180100Ev, symObjAddr: 0x175B0, symBinAddr: 0x10001ACD0, symSize: 0xD0 }
  - { offset: 0x254A0, size: 0x8, addend: 0x0, symName: __ZNSt3__122__compressed_pair_elemIRNS_9allocatorINS_12basic_stringIcNS_11char_traitsIcEENS1_IcEEEEEELi1ELb0EE5__getB8ne180100Ev, symObjAddr: 0x17680, symBinAddr: 0x10001ADA0, symSize: 0xA0 }
  - { offset: 0x254C6, size: 0x8, addend: 0x0, symName: __ZNSt3__117__compressed_pairIPNS_12basic_stringIcNS_11char_traitsIcEENS_9allocatorIcEEEERNS4_IS6_EEE5firstB8ne180100Ev, symObjAddr: 0x17720, symBinAddr: 0x10001AE40, symSize: 0xE0 }
  - { offset: 0x254EC, size: 0x8, addend: 0x0, symName: __ZNKSt3__16vectorINS_12basic_stringIcNS_11char_traitsIcEENS_9allocatorIcEEEENS4_IS6_EEE17__annotate_deleteB8ne180100Ev, symObjAddr: 0x17800, symBinAddr: 0x10001AF20, symSize: 0x168 }
  - { offset: 0x25512, size: 0x8, addend: 0x0, symName: __ZNSt3__116reverse_iteratorIPNS_12basic_stringIcNS_11char_traitsIcEENS_9allocatorIcEEEEEC1B8ne180100ES7_, symObjAddr: 0x17EE0, symBinAddr: 0x10001B600, symSize: 0x60 }
  - { offset: 0x2554A, size: 0x8, addend: 0x0, symName: __ZNKSt3__116reverse_iteratorIPNS_12basic_stringIcNS_11char_traitsIcEENS_9allocatorIcEEEEE4baseB8ne180100Ev, symObjAddr: 0x17F40, symBinAddr: 0x10001B660, symSize: 0x88 }
  - { offset: 0x25570, size: 0x8, addend: 0x0, symName: __ZNKSt3__16vectorINS_12basic_stringIcNS_11char_traitsIcEENS_9allocatorIcEEEENS4_IS6_EEE14__annotate_newB8ne180100Em, symObjAddr: 0x18130, symBinAddr: 0x10001B850, symSize: 0x158 }
  - { offset: 0x255A5, size: 0x8, addend: 0x0, symName: __ZNSt3__129_AllocatorDestroyRangeReverseINS_9allocatorINS_12basic_stringIcNS_11char_traitsIcEENS1_IcEEEEEENS_16reverse_iteratorIPS6_EEEC1B8ne180100ERS7_RSA_SD_, symObjAddr: 0x18480, symBinAddr: 0x10001BBA0, symSize: 0x78 }
  - { offset: 0x255FC, size: 0x8, addend: 0x0, symName: __ZNSt3__116allocator_traitsINS_9allocatorINS_12basic_stringIcNS_11char_traitsIcEENS1_IcEEEEEEE9constructB8ne180100IS6_JS6_EvvEEvRS7_PT_DpOT0_, symObjAddr: 0x18598, symBinAddr: 0x10001BCB8, symSize: 0x70 }
  - { offset: 0x25650, size: 0x8, addend: 0x0, symName: __ZNKSt3__116reverse_iteratorIPNS_12basic_stringIcNS_11char_traitsIcEENS_9allocatorIcEEEEEdeB8ne180100Ev, symObjAddr: 0x18660, symBinAddr: 0x10001BD80, symSize: 0x110 }
  - { offset: 0x25684, size: 0x8, addend: 0x0, symName: __ZNSt3__116reverse_iteratorIPNS_12basic_stringIcNS_11char_traitsIcEENS_9allocatorIcEEEEEppB8ne180100Ev, symObjAddr: 0x18770, symBinAddr: 0x10001BE90, symSize: 0x130 }
  - { offset: 0x256AA, size: 0x8, addend: 0x0, symName: __ZNSt3__128__exception_guard_exceptionsINS_29_AllocatorDestroyRangeReverseINS_9allocatorINS_12basic_stringIcNS_11char_traitsIcEENS2_IcEEEEEENS_16reverse_iteratorIPS7_EEEEE10__completeB8ne180100Ev, symObjAddr: 0x188A0, symBinAddr: 0x10001BFC0, symSize: 0xA0 }
  - { offset: 0x256D0, size: 0x8, addend: 0x0, symName: __ZNSt3__128__exception_guard_exceptionsINS_29_AllocatorDestroyRangeReverseINS_9allocatorINS_12basic_stringIcNS_11char_traitsIcEENS2_IcEEEEEENS_16reverse_iteratorIPS7_EEEEED1B8ne180100Ev, symObjAddr: 0x18940, symBinAddr: 0x10001C060, symSize: 0x50 }
  - { offset: 0x256FA, size: 0x8, addend: 0x0, symName: __ZNSt3__128__exception_guard_exceptionsINS_29_AllocatorDestroyRangeReverseINS_9allocatorINS_12basic_stringIcNS_11char_traitsIcEENS2_IcEEEEEENS_16reverse_iteratorIPS7_EEEEEC1B8ne180100ESC_, symObjAddr: 0x18990, symBinAddr: 0x10001C0B0, symSize: 0x280 }
  - { offset: 0x25737, size: 0x8, addend: 0x0, symName: __ZNSt3__128__exception_guard_exceptionsINS_29_AllocatorDestroyRangeReverseINS_9allocatorINS_12basic_stringIcNS_11char_traitsIcEENS2_IcEEEEEENS_16reverse_iteratorIPS7_EEEEEC2B8ne180100ESC_, symObjAddr: 0x18C10, symBinAddr: 0x10001C330, symSize: 0x220 }
  - { offset: 0x25774, size: 0x8, addend: 0x0, symName: __ZNSt3__129_AllocatorDestroyRangeReverseINS_9allocatorINS_12basic_stringIcNS_11char_traitsIcEENS1_IcEEEEEENS_16reverse_iteratorIPS6_EEEC2B8ne180100ERS7_RSA_SD_, symObjAddr: 0x18E30, symBinAddr: 0x10001C550, symSize: 0x198 }
  - { offset: 0x257CB, size: 0x8, addend: 0x0, symName: __ZNSt3__112basic_stringIcNS_11char_traitsIcEENS_9allocatorIcEEEC1B8ne180100EOS5_, symObjAddr: 0x19110, symBinAddr: 0x10001C830, symSize: 0x60 }
  - { offset: 0x25804, size: 0x8, addend: 0x0, symName: __ZNSt3__112basic_stringIcNS_11char_traitsIcEENS_9allocatorIcEEEC2B8ne180100EOS5_, symObjAddr: 0x19170, symBinAddr: 0x10001C890, symSize: 0x2D0 }
  - { offset: 0x25871, size: 0x8, addend: 0x0, symName: __ZZNSt3__112basic_stringIcNS_11char_traitsIcEENS_9allocatorIcEEEC1B8ne180100EOS5_ENKUlRS5_E_clES7_, symObjAddr: 0x19440, symBinAddr: 0x10001CB60, symSize: 0xD0 }
  - { offset: 0x258AA, size: 0x8, addend: 0x0, symName: __ZNSt3__117__compressed_pairINS_12basic_stringIcNS_11char_traitsIcEENS_9allocatorIcEEE5__repES5_E5firstB8ne180100Ev, symObjAddr: 0x19510, symBinAddr: 0x10001CC30, symSize: 0xE0 }
  - { offset: 0x258D0, size: 0x8, addend: 0x0, symName: __ZNKSt3__112basic_stringIcNS_11char_traitsIcEENS_9allocatorIcEEE9__is_longB8ne180100Ev, symObjAddr: 0x195F0, symBinAddr: 0x10001CD10, symSize: 0x1A0 }
  - { offset: 0x258F6, size: 0x8, addend: 0x0, symName: __ZNKSt3__112basic_stringIcNS_11char_traitsIcEENS_9allocatorIcEEE17__annotate_deleteB8ne180100Ev, symObjAddr: 0x19790, symBinAddr: 0x10001CEB0, symSize: 0x50 }
  - { offset: 0x2591C, size: 0x8, addend: 0x0, symName: __ZNSt3__122__compressed_pair_elemINS_12basic_stringIcNS_11char_traitsIcEENS_9allocatorIcEEE5__repELi0ELb0EE5__getB8ne180100Ev, symObjAddr: 0x197E0, symBinAddr: 0x10001CF00, symSize: 0x80 }
  - { offset: 0x25942, size: 0x8, addend: 0x0, symName: __ZNKSt3__117__compressed_pairINS_12basic_stringIcNS_11char_traitsIcEENS_9allocatorIcEEE5__repES5_E5firstB8ne180100Ev, symObjAddr: 0x19860, symBinAddr: 0x10001CF80, symSize: 0xE0 }
  - { offset: 0x25968, size: 0x8, addend: 0x0, symName: __ZNKSt3__122__compressed_pair_elemINS_12basic_stringIcNS_11char_traitsIcEENS_9allocatorIcEEE5__repELi0ELb0EE5__getB8ne180100Ev, symObjAddr: 0x19940, symBinAddr: 0x10001D060, symSize: 0x88 }
  - { offset: 0x25994, size: 0x8, addend: 0x0, symName: __ZNSt3__119__to_address_helperINS_16reverse_iteratorIPNS_12basic_stringIcNS_11char_traitsIcEENS_9allocatorIcEEEEEEvE6__callB8ne180100ERKS9_, symObjAddr: 0x199C8, symBinAddr: 0x10001D0E8, symSize: 0x68 }
  - { offset: 0x259B7, size: 0x8, addend: 0x0, symName: __ZNKSt3__116reverse_iteratorIPNS_12basic_stringIcNS_11char_traitsIcEENS_9allocatorIcEEEEEptB8ne180100EvQoo12is_pointer_vIT_ErQS9__XcldtfpK_onptEE, symObjAddr: 0x19A30, symBinAddr: 0x10001D150, symSize: 0x98 }
  - { offset: 0x259DD, size: 0x8, addend: 0x0, symName: __ZNSt3__128__exception_guard_exceptionsINS_29_AllocatorDestroyRangeReverseINS_9allocatorINS_12basic_stringIcNS_11char_traitsIcEENS2_IcEEEEEENS_16reverse_iteratorIPS7_EEEEED2B8ne180100Ev, symObjAddr: 0x19DE0, symBinAddr: 0x10001D500, symSize: 0x120 }
  - { offset: 0x25A07, size: 0x8, addend: 0x0, symName: __ZNKSt3__129_AllocatorDestroyRangeReverseINS_9allocatorINS_12basic_stringIcNS_11char_traitsIcEENS1_IcEEEEEENS_16reverse_iteratorIPS6_EEEclB8ne180100Ev, symObjAddr: 0x19F00, symBinAddr: 0x10001D620, symSize: 0x328 }
  - { offset: 0x25A2E, size: 0x8, addend: 0x0, symName: __ZNSt3__116reverse_iteratorINS0_IPNS_12basic_stringIcNS_11char_traitsIcEENS_9allocatorIcEEEEEEEC1B8ne180100ES8_, symObjAddr: 0x1A520, symBinAddr: 0x10001DC40, symSize: 0x68 }
  - { offset: 0x25A66, size: 0x8, addend: 0x0, symName: __ZNSt3__116allocator_traitsINS_9allocatorINS_12basic_stringIcNS_11char_traitsIcEENS1_IcEEEEEEE7destroyB8ne180100IS6_vvEEvRS7_PT_, symObjAddr: 0x1A7A8, symBinAddr: 0x10001DEC8, symSize: 0x30 }
  - { offset: 0x25AA0, size: 0x8, addend: 0x0, symName: __ZNSt3__116reverse_iteratorINS0_IPNS_12basic_stringIcNS_11char_traitsIcEENS_9allocatorIcEEEEEEEppB8ne180100Ev, symObjAddr: 0x1A830, symBinAddr: 0x10001DF50, symSize: 0xC0 }
  - { offset: 0x25AC6, size: 0x8, addend: 0x0, symName: __ZNKSt3__116reverse_iteratorINS0_IPNS_12basic_stringIcNS_11char_traitsIcEENS_9allocatorIcEEEEEEE4baseB8ne180100Ev, symObjAddr: 0x1A8F0, symBinAddr: 0x10001E010, symSize: 0x78 }
  - { offset: 0x25AF2, size: 0x8, addend: 0x0, symName: __ZNSt3__119__to_address_helperINS_16reverse_iteratorINS1_IPNS_12basic_stringIcNS_11char_traitsIcEENS_9allocatorIcEEEEEEEEvE6__callB8ne180100ERKSA_, symObjAddr: 0x1A9C8, symBinAddr: 0x10001E0E8, symSize: 0x68 }
  - { offset: 0x25B15, size: 0x8, addend: 0x0, symName: __ZNKSt3__116reverse_iteratorINS0_IPNS_12basic_stringIcNS_11char_traitsIcEENS_9allocatorIcEEEEEEEptB8ne180100EvQoo12is_pointer_vIT_ErQSA__XcldtfpK_onptEE, symObjAddr: 0x1AA30, symBinAddr: 0x10001E150, symSize: 0x1C8 }
  - { offset: 0x25B3C, size: 0x8, addend: 0x0, symName: __ZNSt3__116reverse_iteratorIPNS_12basic_stringIcNS_11char_traitsIcEENS_9allocatorIcEEEEEpLB8ne180100El, symObjAddr: 0x1AEB0, symBinAddr: 0x10001E5D0, symSize: 0x160 }
  - { offset: 0x25B70, size: 0x8, addend: 0x0, symName: __ZNSt3__116reverse_iteratorIPNS_12basic_stringIcNS_11char_traitsIcEENS_9allocatorIcEEEEEmmB8ne180100Ev, symObjAddr: 0x1B010, symBinAddr: 0x10001E730, symSize: 0x130 }
  - { offset: 0x25B96, size: 0x8, addend: 0x0, symName: __ZNSt3__116reverse_iteratorINS0_IPNS_12basic_stringIcNS_11char_traitsIcEENS_9allocatorIcEEEEEEEC2B8ne180100ES8_, symObjAddr: 0x1B140, symBinAddr: 0x10001E860, symSize: 0x80 }
  - { offset: 0x25BCE, size: 0x8, addend: 0x0, symName: __ZNSt3__116reverse_iteratorIPNS_12basic_stringIcNS_11char_traitsIcEENS_9allocatorIcEEEEEC2B8ne180100ES7_, symObjAddr: 0x1B1C0, symBinAddr: 0x10001E8E0, symSize: 0xD0 }
  - { offset: 0x25C06, size: 0x8, addend: 0x0, symName: __ZNSt3__114__split_bufferINS_12basic_stringIcNS_11char_traitsIcEENS_9allocatorIcEEEERNS4_IS6_EEED2Ev, symObjAddr: 0x1B290, symBinAddr: 0x10001E9B0, symSize: 0x120 }
  - { offset: 0x25C30, size: 0x8, addend: 0x0, symName: __ZNSt3__114__split_bufferINS_12basic_stringIcNS_11char_traitsIcEENS_9allocatorIcEEEERNS4_IS6_EEE5clearB8ne180100Ev, symObjAddr: 0x1B3B0, symBinAddr: 0x10001EAD0, symSize: 0x98 }
  - { offset: 0x25C56, size: 0x8, addend: 0x0, symName: __ZNSt3__116allocator_traitsINS_9allocatorINS_12basic_stringIcNS_11char_traitsIcEENS1_IcEEEEEEE10deallocateB8ne180100ERS7_PS6_m, symObjAddr: 0x1B448, symBinAddr: 0x10001EB68, symSize: 0x38 }
  - { offset: 0x25C98, size: 0x8, addend: 0x0, symName: __ZNKSt3__114__split_bufferINS_12basic_stringIcNS_11char_traitsIcEENS_9allocatorIcEEEERNS4_IS6_EEE8capacityB8ne180100Ev, symObjAddr: 0x1B480, symBinAddr: 0x10001EBA0, symSize: 0x100 }
  - { offset: 0x25CBE, size: 0x8, addend: 0x0, symName: __ZNSt3__114__split_bufferINS_12basic_stringIcNS_11char_traitsIcEENS_9allocatorIcEEEERNS4_IS6_EEE17__destruct_at_endB8ne180100EPS6_, symObjAddr: 0x1B580, symBinAddr: 0x10001ECA0, symSize: 0x60 }
  - { offset: 0x25CF2, size: 0x8, addend: 0x0, symName: __ZNSt3__114__split_bufferINS_12basic_stringIcNS_11char_traitsIcEENS_9allocatorIcEEEERNS4_IS6_EEE17__destruct_at_endB8ne180100EPS6_NS_17integral_constantIbLb0EEE, symObjAddr: 0x1B5E0, symBinAddr: 0x10001ED00, symSize: 0x1B0 }
  - { offset: 0x25D30, size: 0x8, addend: 0x0, symName: __ZNSt3__19allocatorINS_12basic_stringIcNS_11char_traitsIcEENS0_IcEEEEE10deallocateB8ne180100EPS5_m, symObjAddr: 0x1B790, symBinAddr: 0x10001EEB0, symSize: 0x78 }
  - { offset: 0x25D72, size: 0x8, addend: 0x0, symName: __ZNKSt3__114__split_bufferINS_12basic_stringIcNS_11char_traitsIcEENS_9allocatorIcEEEERNS4_IS6_EEE9__end_capB8ne180100Ev, symObjAddr: 0x1B930, symBinAddr: 0x10001F050, symSize: 0xC0 }
  - { offset: 0x25D98, size: 0x8, addend: 0x0, symName: __ZNKSt3__117__compressed_pairIPNS_12basic_stringIcNS_11char_traitsIcEENS_9allocatorIcEEEERNS4_IS6_EEE5firstB8ne180100Ev, symObjAddr: 0x1B9F0, symBinAddr: 0x10001F110, symSize: 0xE0 }
  - { offset: 0x25DBE, size: 0x8, addend: 0x0, symName: __ZNSt3__16vectorIiNS_9allocatorIiEEEC2B8ne180100Ev, symObjAddr: 0x1BAD0, symBinAddr: 0x10001F1F0, symSize: 0x240 }
  - { offset: 0x25DE9, size: 0x8, addend: 0x0, symName: __ZNSt3__117__compressed_pairIPiNS_9allocatorIiEEEC1B8ne180100IDnNS_18__default_init_tagEEEOT_OT0_, symObjAddr: 0x1BD10, symBinAddr: 0x10001F430, symSize: 0x60 }
  - { offset: 0x25E41, size: 0x8, addend: 0x0, symName: __ZNSt3__117__compressed_pairIPiNS_9allocatorIiEEEC2B8ne180100IDnNS_18__default_init_tagEEEOT_OT0_, symObjAddr: 0x1BD70, symBinAddr: 0x10001F490, symSize: 0xF0 }
  - { offset: 0x25E99, size: 0x8, addend: 0x0, symName: __ZNSt3__122__compressed_pair_elemIPiLi0ELb0EEC2B8ne180100IDnvEEOT_, symObjAddr: 0x1BE60, symBinAddr: 0x10001F580, symSize: 0x80 }
  - { offset: 0x25EDB, size: 0x8, addend: 0x0, symName: __ZNSt3__122__compressed_pair_elemINS_9allocatorIiEELi1ELb1EEC2B8ne180100ENS_18__default_init_tagE, symObjAddr: 0x1BEE0, symBinAddr: 0x10001F600, symSize: 0x60 }
  - { offset: 0x25F0F, size: 0x8, addend: 0x0, symName: __ZNSt3__19allocatorIiEC2B8ne180100Ev, symObjAddr: 0x1BF40, symBinAddr: 0x10001F660, symSize: 0x60 }
  - { offset: 0x25F39, size: 0x8, addend: 0x0, symName: __ZNSt3__116__non_trivial_ifILb1ENS_9allocatorIiEEEC2B8ne180100Ev, symObjAddr: 0x1BFA0, symBinAddr: 0x10001F6C0, symSize: 0x40 }
  - { offset: 0x25F63, size: 0x8, addend: 0x0, symName: __ZNSt3__16vectorIiNS_9allocatorIiEEE9__end_capB8ne180100Ev, symObjAddr: 0x1BFE0, symBinAddr: 0x10001F700, symSize: 0xC0 }
  - { offset: 0x25F89, size: 0x8, addend: 0x0, symName: __ZNSt3__16vectorIiNS_9allocatorIiEEE22__construct_one_at_endB8ne180100IJRKiEEEvDpOT_, symObjAddr: 0x1C0A0, symBinAddr: 0x10001F7C0, symSize: 0x3F0 }
  - { offset: 0x25FDE, size: 0x8, addend: 0x0, symName: __ZNSt3__16vectorIiNS_9allocatorIiEEE21__push_back_slow_pathIRKiEEPiOT_, symObjAddr: 0x1C490, symBinAddr: 0x10001FBB0, symSize: 0x4E0 }
  - { offset: 0x26041, size: 0x8, addend: 0x0, symName: __ZNSt3__117__compressed_pairIPiNS_9allocatorIiEEE5firstB8ne180100Ev, symObjAddr: 0x1C970, symBinAddr: 0x100020090, symSize: 0xE0 }
  - { offset: 0x26067, size: 0x8, addend: 0x0, symName: __ZNSt3__122__compressed_pair_elemIPiLi0ELb0EE5__getB8ne180100Ev, symObjAddr: 0x1CA50, symBinAddr: 0x100020170, symSize: 0x80 }
  - { offset: 0x260A9, size: 0x8, addend: 0x0, symName: __ZNSt3__16vectorIiNS_9allocatorIiEEE21_ConstructTransactionC1B8ne180100ERS3_m, symObjAddr: 0x1CAD0, symBinAddr: 0x1000201F0, symSize: 0x68 }
  - { offset: 0x260F1, size: 0x8, addend: 0x0, symName: __ZNSt3__116allocator_traitsINS_9allocatorIiEEE9constructB8ne180100IiJRKiEvvEEvRS2_PT_DpOT0_, symObjAddr: 0x1CB38, symBinAddr: 0x100020258, symSize: 0x68 }
  - { offset: 0x26145, size: 0x8, addend: 0x0, symName: __ZNSt3__16vectorIiNS_9allocatorIiEEE7__allocB8ne180100Ev, symObjAddr: 0x1CBA0, symBinAddr: 0x1000202C0, symSize: 0xB8 }
  - { offset: 0x2616B, size: 0x8, addend: 0x0, symName: __ZNSt3__16vectorIiNS_9allocatorIiEEE21_ConstructTransactionD1B8ne180100Ev, symObjAddr: 0x1CC70, symBinAddr: 0x100020390, symSize: 0x50 }
  - { offset: 0x26195, size: 0x8, addend: 0x0, symName: __ZNSt3__16vectorIiNS_9allocatorIiEEE21_ConstructTransactionC2B8ne180100ERS3_m, symObjAddr: 0x1CCC0, symBinAddr: 0x1000203E0, symSize: 0x2B0 }
  - { offset: 0x261DD, size: 0x8, addend: 0x0, symName: __ZNKSt3__16vectorIiNS_9allocatorIiEEE19__annotate_increaseB8ne180100Em, symObjAddr: 0x1CF70, symBinAddr: 0x100020690, symSize: 0x1C0 }
  - { offset: 0x26212, size: 0x8, addend: 0x0, symName: __ZNKSt3__16vectorIiNS_9allocatorIiEEE31__annotate_contiguous_containerB8ne180100EPKvS5_, symObjAddr: 0x1D130, symBinAddr: 0x100020850, symSize: 0x100 }
  - { offset: 0x26274, size: 0x8, addend: 0x0, symName: __ZNKSt3__16vectorIiNS_9allocatorIiEEE4dataB8ne180100Ev, symObjAddr: 0x1D230, symBinAddr: 0x100020950, symSize: 0x80 }
  - { offset: 0x2629A, size: 0x8, addend: 0x0, symName: __ZNKSt3__16vectorIiNS_9allocatorIiEEE4sizeB8ne180100Ev, symObjAddr: 0x1D2B0, symBinAddr: 0x1000209D0, symSize: 0xC0 }
  - { offset: 0x262C0, size: 0x8, addend: 0x0, symName: __ZNKSt3__16vectorIiNS_9allocatorIiEEE8capacityB8ne180100Ev, symObjAddr: 0x1D370, symBinAddr: 0x100020A90, symSize: 0x100 }
  - { offset: 0x262E6, size: 0x8, addend: 0x0, symName: __ZNKSt3__16vectorIiNS_9allocatorIiEEE9__end_capB8ne180100Ev, symObjAddr: 0x1D470, symBinAddr: 0x100020B90, symSize: 0xC0 }
  - { offset: 0x2630C, size: 0x8, addend: 0x0, symName: __ZNKSt3__117__compressed_pairIPiNS_9allocatorIiEEE5firstB8ne180100Ev, symObjAddr: 0x1D530, symBinAddr: 0x100020C50, symSize: 0xE0 }
  - { offset: 0x26332, size: 0x8, addend: 0x0, symName: __ZNKSt3__122__compressed_pair_elemIPiLi0ELb0EE5__getB8ne180100Ev, symObjAddr: 0x1D610, symBinAddr: 0x100020D30, symSize: 0x88 }
  - { offset: 0x26358, size: 0x8, addend: 0x0, symName: __ZNSt3__117__compressed_pairIPiNS_9allocatorIiEEE6secondB8ne180100Ev, symObjAddr: 0x1D860, symBinAddr: 0x100020F80, symSize: 0xC0 }
  - { offset: 0x2637E, size: 0x8, addend: 0x0, symName: __ZNSt3__122__compressed_pair_elemINS_9allocatorIiEELi1ELb1EE5__getB8ne180100Ev, symObjAddr: 0x1D920, symBinAddr: 0x100021040, symSize: 0x60 }
  - { offset: 0x263A4, size: 0x8, addend: 0x0, symName: __ZNSt3__16vectorIiNS_9allocatorIiEEE21_ConstructTransactionD2B8ne180100Ev, symObjAddr: 0x1D980, symBinAddr: 0x1000210A0, symSize: 0x2E0 }
  - { offset: 0x263CE, size: 0x8, addend: 0x0, symName: __ZNKSt3__16vectorIiNS_9allocatorIiEEE17__annotate_shrinkB8ne180100Em, symObjAddr: 0x1DC60, symBinAddr: 0x100021380, symSize: 0x150 }
  - { offset: 0x26403, size: 0x8, addend: 0x0, symName: __ZNKSt3__16vectorIiNS_9allocatorIiEEE11__recommendB8ne180100Em, symObjAddr: 0x1DDB0, symBinAddr: 0x1000214D0, symSize: 0x310 }
  - { offset: 0x2645D, size: 0x8, addend: 0x0, symName: __ZNSt3__114__split_bufferIiRNS_9allocatorIiEEEC1EmmS3_, symObjAddr: 0x1E0C0, symBinAddr: 0x1000217E0, symSize: 0x70 }
  - { offset: 0x264B1, size: 0x8, addend: 0x0, symName: __ZNSt3__114__split_bufferIiRNS_9allocatorIiEEED1Ev, symObjAddr: 0x1E7F0, symBinAddr: 0x100021F10, symSize: 0x50 }
  - { offset: 0x264DB, size: 0x8, addend: 0x0, symName: __ZNKSt3__16vectorIiNS_9allocatorIiEEE8max_sizeEv, symObjAddr: 0x1E840, symBinAddr: 0x100021F60, symSize: 0x280 }
  - { offset: 0x26502, size: 0x8, addend: 0x0, symName: __ZNKSt3__16vectorIiNS_9allocatorIiEEE20__throw_length_errorB8ne180100Ev, symObjAddr: 0x1EAC0, symBinAddr: 0x1000221E0, symSize: 0x78 }
  - { offset: 0x26533, size: 0x8, addend: 0x0, symName: __ZNSt3__116allocator_traitsINS_9allocatorIiEEE8max_sizeB8ne180100IS2_vvEEmRKS2_, symObjAddr: 0x1EB38, symBinAddr: 0x100022258, symSize: 0x48 }
  - { offset: 0x2655E, size: 0x8, addend: 0x0, symName: __ZNKSt3__16vectorIiNS_9allocatorIiEEE7__allocB8ne180100Ev, symObjAddr: 0x1EB80, symBinAddr: 0x1000222A0, symSize: 0xB0 }
  - { offset: 0x26584, size: 0x8, addend: 0x0, symName: __ZNKSt3__117__compressed_pairIPiNS_9allocatorIiEEE6secondB8ne180100Ev, symObjAddr: 0x1EC30, symBinAddr: 0x100022350, symSize: 0xC0 }
  - { offset: 0x265AA, size: 0x8, addend: 0x0, symName: __ZNKSt3__122__compressed_pair_elemINS_9allocatorIiEELi1ELb1EE5__getB8ne180100Ev, symObjAddr: 0x1ECF0, symBinAddr: 0x100022410, symSize: 0x60 }
  - { offset: 0x265D0, size: 0x8, addend: 0x0, symName: __ZNSt3__114__split_bufferIiRNS_9allocatorIiEEEC2EmmS3_, symObjAddr: 0x1ED50, symBinAddr: 0x100022470, symSize: 0x5A0 }
  - { offset: 0x26649, size: 0x8, addend: 0x0, symName: __ZNSt3__117__compressed_pairIPiRNS_9allocatorIiEEEC1B8ne180100IDnS4_EEOT_OT0_, symObjAddr: 0x1F2F0, symBinAddr: 0x100022A10, symSize: 0x68 }
  - { offset: 0x266A1, size: 0x8, addend: 0x0, symName: __ZNSt3__114__split_bufferIiRNS_9allocatorIiEEE7__allocB8ne180100Ev, symObjAddr: 0x1F390, symBinAddr: 0x100022AB0, symSize: 0xB0 }
  - { offset: 0x266C7, size: 0x8, addend: 0x0, symName: __ZNSt3__114__split_bufferIiRNS_9allocatorIiEEE9__end_capB8ne180100Ev, symObjAddr: 0x1F440, symBinAddr: 0x100022B60, symSize: 0xC0 }
  - { offset: 0x266ED, size: 0x8, addend: 0x0, symName: __ZNSt3__117__compressed_pairIPiRNS_9allocatorIiEEEC2B8ne180100IDnS4_EEOT_OT0_, symObjAddr: 0x1F500, symBinAddr: 0x100022C20, symSize: 0x130 }
  - { offset: 0x26745, size: 0x8, addend: 0x0, symName: __ZNSt3__122__compressed_pair_elemIRNS_9allocatorIiEELi1ELb0EEC2B8ne180100IS3_vEEOT_, symObjAddr: 0x1F630, symBinAddr: 0x100022D50, symSize: 0xA0 }
  - { offset: 0x26787, size: 0x8, addend: 0x0, symName: __ZNSt3__19allocatorIiE8allocateB8ne180100Em, symObjAddr: 0x1F6D0, symBinAddr: 0x100022DF0, symSize: 0xB0 }
  - { offset: 0x267BB, size: 0x8, addend: 0x0, symName: __ZNSt3__117__compressed_pairIPiRNS_9allocatorIiEEE6secondB8ne180100Ev, symObjAddr: 0x1F780, symBinAddr: 0x100022EA0, symSize: 0xD0 }
  - { offset: 0x267E1, size: 0x8, addend: 0x0, symName: __ZNSt3__122__compressed_pair_elemIRNS_9allocatorIiEELi1ELb0EE5__getB8ne180100Ev, symObjAddr: 0x1F850, symBinAddr: 0x100022F70, symSize: 0xA0 }
  - { offset: 0x26807, size: 0x8, addend: 0x0, symName: __ZNSt3__117__compressed_pairIPiRNS_9allocatorIiEEE5firstB8ne180100Ev, symObjAddr: 0x1F8F0, symBinAddr: 0x100023010, symSize: 0xE0 }
  - { offset: 0x2682D, size: 0x8, addend: 0x0, symName: __ZNKSt3__16vectorIiNS_9allocatorIiEEE17__annotate_deleteB8ne180100Ev, symObjAddr: 0x1F9D0, symBinAddr: 0x1000230F0, symSize: 0x158 }
  - { offset: 0x26853, size: 0x8, addend: 0x0, symName: __ZNSt3__116reverse_iteratorIPiEC1B8ne180100ES1_, symObjAddr: 0x1FD80, symBinAddr: 0x1000234A0, symSize: 0x60 }
  - { offset: 0x2688B, size: 0x8, addend: 0x0, symName: __ZNKSt3__116reverse_iteratorIPiE4baseB8ne180100Ev, symObjAddr: 0x1FDE0, symBinAddr: 0x100023500, symSize: 0x88 }
  - { offset: 0x268B1, size: 0x8, addend: 0x0, symName: __ZNKSt3__16vectorIiNS_9allocatorIiEEE14__annotate_newB8ne180100Em, symObjAddr: 0x1FFD0, symBinAddr: 0x1000236F0, symSize: 0x158 }
  - { offset: 0x2690E, size: 0x8, addend: 0x0, symName: __ZNKSt3__111__move_loopINS_17_ClassicAlgPolicyEEclB8ne180100INS_16reverse_iteratorIPiEES6_S6_EENS_4pairIT_T1_EES8_T0_S9_, symObjAddr: 0x20CE0, symBinAddr: 0x100024400, symSize: 0x418 }
  - { offset: 0x26986, size: 0x8, addend: 0x0, symName: __ZNSt3__119__unwrap_range_implINS_16reverse_iteratorIPiEES3_E8__unwrapB8ne180100ES3_S3_, symObjAddr: 0x21348, symBinAddr: 0x100024A68, symSize: 0x278 }
  - { offset: 0x269BF, size: 0x8, addend: 0x0, symName: __ZNSt3__14pairINS_16reverse_iteratorIPiEES3_EC1B8ne180100IS3_S3_TnNS_9enable_ifIXclsr10_CheckArgsE17__enable_implicitIT_T0_EEEiE4typeELi0EEEOS7_OS8_, symObjAddr: 0x215C0, symBinAddr: 0x100024CE0, symSize: 0x60 }
  - { offset: 0x26A1D, size: 0x8, addend: 0x0, symName: __ZNSt3__14pairINS_16reverse_iteratorIPiEES3_EC2B8ne180100IS3_S3_TnNS_9enable_ifIXclsr10_CheckArgsE17__enable_implicitIT_T0_EEEiE4typeELi0EEEOS7_OS8_, symObjAddr: 0x21620, symBinAddr: 0x100024D40, symSize: 0x88 }
  - { offset: 0x26A81, size: 0x8, addend: 0x0, symName: __ZNSt3__18_IterOpsINS_17_ClassicAlgPolicyEE11__iter_moveB8ne180100IRNS_16reverse_iteratorIPiEETnNS_9enable_ifIXsr12is_referenceIDTdeclsr3stdE7declvalIRT_EEEEE5valueEiE4typeELi0EEEDTclsr3stdE4movedeclsr3stdE7declvalISA_EEEEOS9_, symObjAddr: 0x21748, symBinAddr: 0x100024E68, symSize: 0x98 }
  - { offset: 0x26AB3, size: 0x8, addend: 0x0, symName: __ZNKSt3__116reverse_iteratorIPiEdeB8ne180100Ev, symObjAddr: 0x217E0, symBinAddr: 0x100024F00, symSize: 0x110 }
  - { offset: 0x26AE7, size: 0x8, addend: 0x0, symName: __ZNSt3__116reverse_iteratorIPiEppB8ne180100Ev, symObjAddr: 0x218F0, symBinAddr: 0x100025010, symSize: 0x138 }
  - { offset: 0x26B0D, size: 0x8, addend: 0x0, symName: __ZNSt3__18_IterOpsINS_17_ClassicAlgPolicyEE25__validate_iter_referenceB8ne180100IRNS_16reverse_iteratorIPiEEEEvv, symObjAddr: 0x21A28, symBinAddr: 0x100025148, symSize: 0x10 }
  - { offset: 0x26B2B, size: 0x8, addend: 0x0, symName: __ZNSt3__118__unwrap_iter_implINS_16reverse_iteratorIPiEELb0EE8__unwrapB8ne180100ES3_, symObjAddr: 0x21A38, symBinAddr: 0x100025158, symSize: 0x40 }
  - { offset: 0x26B4E, size: 0x8, addend: 0x0, symName: __ZNSt3__119__unwrap_range_implINS_16reverse_iteratorIPiEES3_E8__rewrapB8ne180100ES3_S3_, symObjAddr: 0x21A78, symBinAddr: 0x100025198, symSize: 0x80 }
  - { offset: 0x26B7F, size: 0x8, addend: 0x0, symName: __ZNSt3__118__unwrap_iter_implINS_16reverse_iteratorIPiEELb0EE8__rewrapB8ne180100ES3_S3_, symObjAddr: 0x21AF8, symBinAddr: 0x100025218, symSize: 0x38 }
  - { offset: 0x26BAC, size: 0x8, addend: 0x0, symName: __ZNSt3__116reverse_iteratorIPiEC2B8ne180100ES1_, symObjAddr: 0x21B30, symBinAddr: 0x100025250, symSize: 0xD0 }
  - { offset: 0x26BE4, size: 0x8, addend: 0x0, symName: __ZNSt3__114__split_bufferIiRNS_9allocatorIiEEED2Ev, symObjAddr: 0x21C00, symBinAddr: 0x100025320, symSize: 0x120 }
  - { offset: 0x26C0E, size: 0x8, addend: 0x0, symName: __ZNSt3__114__split_bufferIiRNS_9allocatorIiEEE5clearB8ne180100Ev, symObjAddr: 0x21D20, symBinAddr: 0x100025440, symSize: 0x98 }
  - { offset: 0x26C34, size: 0x8, addend: 0x0, symName: __ZNSt3__116allocator_traitsINS_9allocatorIiEEE10deallocateB8ne180100ERS2_Pim, symObjAddr: 0x21DB8, symBinAddr: 0x1000254D8, symSize: 0x38 }
  - { offset: 0x26C76, size: 0x8, addend: 0x0, symName: __ZNKSt3__114__split_bufferIiRNS_9allocatorIiEEE8capacityB8ne180100Ev, symObjAddr: 0x21DF0, symBinAddr: 0x100025510, symSize: 0x100 }
  - { offset: 0x26C9C, size: 0x8, addend: 0x0, symName: __ZNSt3__114__split_bufferIiRNS_9allocatorIiEEE17__destruct_at_endB8ne180100EPi, symObjAddr: 0x21EF0, symBinAddr: 0x100025610, symSize: 0x60 }
  - { offset: 0x26CD0, size: 0x8, addend: 0x0, symName: __ZNSt3__114__split_bufferIiRNS_9allocatorIiEEE17__destruct_at_endB8ne180100EPiNS_17integral_constantIbLb0EEE, symObjAddr: 0x21F50, symBinAddr: 0x100025670, symSize: 0x1B8 }
  - { offset: 0x26D0E, size: 0x8, addend: 0x0, symName: __ZNSt3__116allocator_traitsINS_9allocatorIiEEE7destroyB8ne180100IivvEEvRS2_PT_, symObjAddr: 0x22108, symBinAddr: 0x100025828, symSize: 0x30 }
  - { offset: 0x26D48, size: 0x8, addend: 0x0, symName: __ZNSt3__19allocatorIiE10deallocateB8ne180100EPim, symObjAddr: 0x22150, symBinAddr: 0x100025870, symSize: 0x70 }
  - { offset: 0x26D8A, size: 0x8, addend: 0x0, symName: __ZNKSt3__114__split_bufferIiRNS_9allocatorIiEEE9__end_capB8ne180100Ev, symObjAddr: 0x221C0, symBinAddr: 0x1000258E0, symSize: 0xC0 }
  - { offset: 0x26DB0, size: 0x8, addend: 0x0, symName: __ZNKSt3__117__compressed_pairIPiRNS_9allocatorIiEEE5firstB8ne180100Ev, symObjAddr: 0x22280, symBinAddr: 0x1000259A0, symSize: 0xE0 }
  - { offset: 0x26DD6, size: 0x8, addend: 0x0, symName: __ZNSt3__118basic_stringstreamIcNS_11char_traitsIcEENS_9allocatorIcEEED2Ev, symObjAddr: 0x22360, symBinAddr: 0x100025A80, symSize: 0x200 }
  - { offset: 0x26E10, size: 0x8, addend: 0x0, symName: __ZThn16_NSt3__118basic_stringstreamIcNS_11char_traitsIcEENS_9allocatorIcEEED1Ev, symObjAddr: 0x22560, symBinAddr: 0x100025C80, symSize: 0x20 }
  - { offset: 0x26E27, size: 0x8, addend: 0x0, symName: __ZTv0_n24_NSt3__118basic_stringstreamIcNS_11char_traitsIcEENS_9allocatorIcEEED1Ev, symObjAddr: 0x22580, symBinAddr: 0x100025CA0, symSize: 0x90 }
  - { offset: 0x26E44, size: 0x8, addend: 0x0, symName: __ZNSt3__115basic_stringbufIcNS_11char_traitsIcEENS_9allocatorIcEEED1Ev, symObjAddr: 0x22610, symBinAddr: 0x100025D30, symSize: 0x50 }
  - { offset: 0x26E71, size: 0x8, addend: 0x0, symName: __ZNSt3__115basic_stringbufIcNS_11char_traitsIcEENS_9allocatorIcEEED2Ev, symObjAddr: 0x22660, symBinAddr: 0x100025D80, symSize: 0xA0 }
  - { offset: 0x26E9E, size: 0x8, addend: 0x0, symName: __ZN14QuadgramScorerC2ERKNSt3__16vectorINS0_12basic_stringIcNS0_11char_traitsIcEENS0_9allocatorIcEEEENS5_IS7_EEEERKNS1_IiNS5_IiEEEE, symObjAddr: 0x22700, symBinAddr: 0x100025E20, symSize: 0x7A0 }
  - { offset: 0x26F74, size: 0x8, addend: 0x0, symName: __ZNSt3__113unordered_mapINS_12basic_stringIcNS_11char_traitsIcEENS_9allocatorIcEEEEdNS_4hashIS6_EENS_8equal_toIS6_EENS4_INS_4pairIKS6_dEEEEEC1B8ne180100Ev, symObjAddr: 0x22EA0, symBinAddr: 0x1000265C0, symSize: 0x50 }
  - { offset: 0x26F9E, size: 0x8, addend: 0x0, symName: __ZNKSt3__16vectorIiNS_9allocatorIiEEE5beginB8ne180100Ev, symObjAddr: 0x22EF0, symBinAddr: 0x100026610, symSize: 0x90 }
  - { offset: 0x26FC4, size: 0x8, addend: 0x0, symName: __ZNKSt3__16vectorIiNS_9allocatorIiEEE3endB8ne180100Ev, symObjAddr: 0x22F80, symBinAddr: 0x1000266A0, symSize: 0x98 }
  - { offset: 0x26FEA, size: 0x8, addend: 0x0, symName: __ZNKSt3__111__wrap_iterIPKiEdeB8ne180100Ev, symObjAddr: 0x230B0, symBinAddr: 0x1000267D0, symSize: 0xB0 }
  - { offset: 0x27010, size: 0x8, addend: 0x0, symName: __ZNSt3__111__wrap_iterIPKiEppB8ne180100Ev, symObjAddr: 0x23160, symBinAddr: 0x100026880, symSize: 0x130 }
  - { offset: 0x2703C, size: 0x8, addend: 0x0, symName: __ZNSt3__113unordered_mapINS_12basic_stringIcNS_11char_traitsIcEENS_9allocatorIcEEEEdNS_4hashIS6_EENS_8equal_toIS6_EENS4_INS_4pairIKS6_dEEEEE7emplaceB8ne180100IJRSC_dEEENSB_INS_19__hash_map_iteratorINS_15__hash_iteratorIPNS_11__hash_nodeINS_17__hash_value_typeIS6_dEEPvEEEEEEbEEDpOT_, symObjAddr: 0x23290, symBinAddr: 0x1000269B0, symSize: 0x290 }
  - { offset: 0x27093, size: 0x8, addend: 0x0, symName: __ZNKSt3__16vectorINS_12basic_stringIcNS_11char_traitsIcEENS_9allocatorIcEEEENS4_IS6_EEE2atEm, symObjAddr: 0x23520, symBinAddr: 0x100026C40, symSize: 0x168 }
  - { offset: 0x270C8, size: 0x8, addend: 0x0, symName: __ZNKSt3__16vectorIiNS_9allocatorIiEEE2atEm, symObjAddr: 0x236B0, symBinAddr: 0x100026DD0, symSize: 0x150 }
  - { offset: 0x270FD, size: 0x8, addend: 0x0, symName: __ZNSt3__113unordered_mapINS_12basic_stringIcNS_11char_traitsIcEENS_9allocatorIcEEEEdNS_4hashIS6_EENS_8equal_toIS6_EENS4_INS_4pairIKS6_dEEEEED1B8ne180100Ev, symObjAddr: 0x23800, symBinAddr: 0x100026F20, symSize: 0x50 }
  - { offset: 0x27127, size: 0x8, addend: 0x0, symName: __ZNSt3__113unordered_mapINS_12basic_stringIcNS_11char_traitsIcEENS_9allocatorIcEEEEdNS_4hashIS6_EENS_8equal_toIS6_EENS4_INS_4pairIKS6_dEEEEEC2B8ne180100Ev, symObjAddr: 0x23850, symBinAddr: 0x100026F70, symSize: 0x50 }
  - { offset: 0x27151, size: 0x8, addend: 0x0, symName: __ZNSt3__112__hash_tableINS_17__hash_value_typeINS_12basic_stringIcNS_11char_traitsIcEENS_9allocatorIcEEEEdEENS_22__unordered_map_hasherIS7_S8_NS_4hashIS7_EENS_8equal_toIS7_EELb1EEENS_21__unordered_map_equalIS7_S8_SD_SB_Lb1EEENS5_IS8_EEEC1Ev, symObjAddr: 0x238A0, symBinAddr: 0x100026FC0, symSize: 0x50 }
  - { offset: 0x2717D, size: 0x8, addend: 0x0, symName: __ZNSt3__112__hash_tableINS_17__hash_value_typeINS_12basic_stringIcNS_11char_traitsIcEENS_9allocatorIcEEEEdEENS_22__unordered_map_hasherIS7_S8_NS_4hashIS7_EENS_8equal_toIS7_EELb1EEENS_21__unordered_map_equalIS7_S8_SD_SB_Lb1EEENS5_IS8_EEEC2Ev, symObjAddr: 0x238F0, symBinAddr: 0x100027010, symSize: 0x240 }
  - { offset: 0x271AA, size: 0x8, addend: 0x0, symName: __ZNSt3__110unique_ptrIA_PNS_16__hash_node_baseIPNS_11__hash_nodeINS_17__hash_value_typeINS_12basic_stringIcNS_11char_traitsIcEENS_9allocatorIcEEEEdEEPvEEEENS_25__bucket_list_deallocatorINS7_ISF_EEEEEC1B8ne180100ILb1EvEEv, symObjAddr: 0x23B30, symBinAddr: 0x100027250, symSize: 0x50 }
  - { offset: 0x271DF, size: 0x8, addend: 0x0, symName: __ZNSt3__117__compressed_pairINS_16__hash_node_baseIPNS_11__hash_nodeINS_17__hash_value_typeINS_12basic_stringIcNS_11char_traitsIcEENS_9allocatorIcEEEEdEEPvEEEENS7_ISC_EEEC1B8ne180100ILb1EvEEv, symObjAddr: 0x23B80, symBinAddr: 0x1000272A0, symSize: 0x50 }
  - { offset: 0x2721A, size: 0x8, addend: 0x0, symName: __ZNSt3__117__compressed_pairImNS_22__unordered_map_hasherINS_12basic_stringIcNS_11char_traitsIcEENS_9allocatorIcEEEENS_17__hash_value_typeIS7_dEENS_4hashIS7_EENS_8equal_toIS7_EELb1EEEEC1B8ne180100IiNS_18__default_init_tagEEEOT_OT0_, symObjAddr: 0x23BD0, symBinAddr: 0x1000272F0, symSize: 0x60 }
  - { offset: 0x27278, size: 0x8, addend: 0x0, symName: __ZNSt3__117__compressed_pairIfNS_21__unordered_map_equalINS_12basic_stringIcNS_11char_traitsIcEENS_9allocatorIcEEEENS_17__hash_value_typeIS7_dEENS_8equal_toIS7_EENS_4hashIS7_EELb1EEEEC1B8ne180100IfNS_18__default_init_tagEEEOT_OT0_, symObjAddr: 0x23C30, symBinAddr: 0x100027350, symSize: 0x60 }
  - { offset: 0x272D0, size: 0x8, addend: 0x0, symName: __ZNSt3__110unique_ptrIA_PNS_16__hash_node_baseIPNS_11__hash_nodeINS_17__hash_value_typeINS_12basic_stringIcNS_11char_traitsIcEENS_9allocatorIcEEEEdEEPvEEEENS_25__bucket_list_deallocatorINS7_ISF_EEEEEC2B8ne180100ILb1EvEEv, symObjAddr: 0x23C90, symBinAddr: 0x1000273B0, symSize: 0x1B0 }
  - { offset: 0x27306, size: 0x8, addend: 0x0, symName: __ZNSt3__117__compressed_pairIPPNS_16__hash_node_baseIPNS_11__hash_nodeINS_17__hash_value_typeINS_12basic_stringIcNS_11char_traitsIcEENS_9allocatorIcEEEEdEEPvEEEENS_25__bucket_list_deallocatorINS7_ISF_EEEEEC1B8ne180100INS_16__value_init_tagESM_EEOT_OT0_, symObjAddr: 0x23E40, symBinAddr: 0x100027560, symSize: 0x60 }
  - { offset: 0x2735E, size: 0x8, addend: 0x0, symName: __ZNSt3__117__compressed_pairIPPNS_16__hash_node_baseIPNS_11__hash_nodeINS_17__hash_value_typeINS_12basic_stringIcNS_11char_traitsIcEENS_9allocatorIcEEEEdEEPvEEEENS_25__bucket_list_deallocatorINS7_ISF_EEEEEC2B8ne180100INS_16__value_init_tagESM_EEOT_OT0_, symObjAddr: 0x23EA0, symBinAddr: 0x1000275C0, symSize: 0xD0 }
  - { offset: 0x273B6, size: 0x8, addend: 0x0, symName: __ZNSt3__122__compressed_pair_elemIPPNS_16__hash_node_baseIPNS_11__hash_nodeINS_17__hash_value_typeINS_12basic_stringIcNS_11char_traitsIcEENS_9allocatorIcEEEEdEEPvEEEELi0ELb0EEC2B8ne180100ENS_16__value_init_tagE, symObjAddr: 0x23F70, symBinAddr: 0x100027690, symSize: 0x80 }
  - { offset: 0x273EA, size: 0x8, addend: 0x0, symName: __ZNSt3__122__compressed_pair_elemINS_25__bucket_list_deallocatorINS_9allocatorIPNS_16__hash_node_baseIPNS_11__hash_nodeINS_17__hash_value_typeINS_12basic_stringIcNS_11char_traitsIcEENS2_IcEEEEdEEPvEEEEEEEELi1ELb0EEC2B8ne180100ENS_16__value_init_tagE, symObjAddr: 0x23FF0, symBinAddr: 0x100027710, symSize: 0x50 }
  - { offset: 0x2741E, size: 0x8, addend: 0x0, symName: __ZNSt3__125__bucket_list_deallocatorINS_9allocatorIPNS_16__hash_node_baseIPNS_11__hash_nodeINS_17__hash_value_typeINS_12basic_stringIcNS_11char_traitsIcEENS1_IcEEEEdEEPvEEEEEEEC1B8ne180100Ev, symObjAddr: 0x24040, symBinAddr: 0x100027760, symSize: 0x50 }
  - { offset: 0x27448, size: 0x8, addend: 0x0, symName: __ZNSt3__125__bucket_list_deallocatorINS_9allocatorIPNS_16__hash_node_baseIPNS_11__hash_nodeINS_17__hash_value_typeINS_12basic_stringIcNS_11char_traitsIcEENS1_IcEEEEdEEPvEEEEEEEC2B8ne180100Ev, symObjAddr: 0x24090, symBinAddr: 0x1000277B0, symSize: 0x1C0 }
  - { offset: 0x27473, size: 0x8, addend: 0x0, symName: __ZNSt3__117__compressed_pairImNS_9allocatorIPNS_16__hash_node_baseIPNS_11__hash_nodeINS_17__hash_value_typeINS_12basic_stringIcNS_11char_traitsIcEENS1_IcEEEEdEEPvEEEEEEEC1B8ne180100IiNS_18__default_init_tagEEEOT_OT0_, symObjAddr: 0x24250, symBinAddr: 0x100027970, symSize: 0x60 }
  - { offset: 0x274CB, size: 0x8, addend: 0x0, symName: __ZNSt3__117__compressed_pairImNS_9allocatorIPNS_16__hash_node_baseIPNS_11__hash_nodeINS_17__hash_value_typeINS_12basic_stringIcNS_11char_traitsIcEENS1_IcEEEEdEEPvEEEEEEEC2B8ne180100IiNS_18__default_init_tagEEEOT_OT0_, symObjAddr: 0x242B0, symBinAddr: 0x1000279D0, symSize: 0xF0 }
  - { offset: 0x27523, size: 0x8, addend: 0x0, symName: __ZNSt3__122__compressed_pair_elemImLi0ELb0EEC2B8ne180100IivEEOT_, symObjAddr: 0x243A0, symBinAddr: 0x100027AC0, symSize: 0x110 }
  - { offset: 0x27565, size: 0x8, addend: 0x0, symName: __ZNSt3__122__compressed_pair_elemINS_9allocatorIPNS_16__hash_node_baseIPNS_11__hash_nodeINS_17__hash_value_typeINS_12basic_stringIcNS_11char_traitsIcEENS1_IcEEEEdEEPvEEEEEELi1ELb1EEC2B8ne180100ENS_18__default_init_tagE, symObjAddr: 0x244B0, symBinAddr: 0x100027BD0, symSize: 0x60 }
  - { offset: 0x27599, size: 0x8, addend: 0x0, symName: __ZNSt3__19allocatorIPNS_16__hash_node_baseIPNS_11__hash_nodeINS_17__hash_value_typeINS_12basic_stringIcNS_11char_traitsIcEENS0_IcEEEEdEEPvEEEEEC2B8ne180100Ev, symObjAddr: 0x24510, symBinAddr: 0x100027C30, symSize: 0x60 }
  - { offset: 0x275C3, size: 0x8, addend: 0x0, symName: __ZNSt3__116__non_trivial_ifILb1ENS_9allocatorIPNS_16__hash_node_baseIPNS_11__hash_nodeINS_17__hash_value_typeINS_12basic_stringIcNS_11char_traitsIcEENS1_IcEEEEdEEPvEEEEEEEC2B8ne180100Ev, symObjAddr: 0x24570, symBinAddr: 0x100027C90, symSize: 0x40 }
  - { offset: 0x275ED, size: 0x8, addend: 0x0, symName: __ZNSt3__117__compressed_pairINS_16__hash_node_baseIPNS_11__hash_nodeINS_17__hash_value_typeINS_12basic_stringIcNS_11char_traitsIcEENS_9allocatorIcEEEEdEEPvEEEENS7_ISC_EEEC2B8ne180100ILb1EvEEv, symObjAddr: 0x245B0, symBinAddr: 0x100027CD0, symSize: 0xB0 }
  - { offset: 0x27622, size: 0x8, addend: 0x0, symName: __ZNSt3__122__compressed_pair_elemINS_16__hash_node_baseIPNS_11__hash_nodeINS_17__hash_value_typeINS_12basic_stringIcNS_11char_traitsIcEENS_9allocatorIcEEEEdEEPvEEEELi0ELb0EEC2B8ne180100ENS_16__value_init_tagE, symObjAddr: 0x24660, symBinAddr: 0x100027D80, symSize: 0x50 }
  - { offset: 0x27656, size: 0x8, addend: 0x0, symName: __ZNSt3__122__compressed_pair_elemINS_9allocatorINS_11__hash_nodeINS_17__hash_value_typeINS_12basic_stringIcNS_11char_traitsIcEENS1_IcEEEEdEEPvEEEELi1ELb1EEC2B8ne180100ENS_16__value_init_tagE, symObjAddr: 0x246B0, symBinAddr: 0x100027DD0, symSize: 0x60 }
  - { offset: 0x2768A, size: 0x8, addend: 0x0, symName: __ZNSt3__116__hash_node_baseIPNS_11__hash_nodeINS_17__hash_value_typeINS_12basic_stringIcNS_11char_traitsIcEENS_9allocatorIcEEEEdEEPvEEEC1B8ne180100Ev, symObjAddr: 0x24710, symBinAddr: 0x100027E30, symSize: 0x50 }
  - { offset: 0x276B4, size: 0x8, addend: 0x0, symName: __ZNSt3__116__hash_node_baseIPNS_11__hash_nodeINS_17__hash_value_typeINS_12basic_stringIcNS_11char_traitsIcEENS_9allocatorIcEEEEdEEPvEEEC2B8ne180100Ev, symObjAddr: 0x24760, symBinAddr: 0x100027E80, symSize: 0x80 }
  - { offset: 0x276DE, size: 0x8, addend: 0x0, symName: __ZNSt3__19allocatorINS_11__hash_nodeINS_17__hash_value_typeINS_12basic_stringIcNS_11char_traitsIcEENS0_IcEEEEdEEPvEEEC2B8ne180100Ev, symObjAddr: 0x247E0, symBinAddr: 0x100027F00, symSize: 0x60 }
  - { offset: 0x27708, size: 0x8, addend: 0x0, symName: __ZNSt3__116__non_trivial_ifILb1ENS_9allocatorINS_11__hash_nodeINS_17__hash_value_typeINS_12basic_stringIcNS_11char_traitsIcEENS1_IcEEEEdEEPvEEEEEC2B8ne180100Ev, symObjAddr: 0x24840, symBinAddr: 0x100027F60, symSize: 0x40 }
  - { offset: 0x27732, size: 0x8, addend: 0x0, symName: __ZNSt3__117__compressed_pairImNS_22__unordered_map_hasherINS_12basic_stringIcNS_11char_traitsIcEENS_9allocatorIcEEEENS_17__hash_value_typeIS7_dEENS_4hashIS7_EENS_8equal_toIS7_EELb1EEEEC2B8ne180100IiNS_18__default_init_tagEEEOT_OT0_, symObjAddr: 0x24880, symBinAddr: 0x100027FA0, symSize: 0xF0 }
  - { offset: 0x2778A, size: 0x8, addend: 0x0, symName: __ZNSt3__122__compressed_pair_elemINS_22__unordered_map_hasherINS_12basic_stringIcNS_11char_traitsIcEENS_9allocatorIcEEEENS_17__hash_value_typeIS7_dEENS_4hashIS7_EENS_8equal_toIS7_EELb1EEELi1ELb1EEC2B8ne180100ENS_18__default_init_tagE, symObjAddr: 0x24970, symBinAddr: 0x100028090, symSize: 0x60 }
  - { offset: 0x277BE, size: 0x8, addend: 0x0, symName: __ZNSt3__122__unordered_map_hasherINS_12basic_stringIcNS_11char_traitsIcEENS_9allocatorIcEEEENS_17__hash_value_typeIS6_dEENS_4hashIS6_EENS_8equal_toIS6_EELb1EEC2B8ne180100Ev, symObjAddr: 0x249D0, symBinAddr: 0x1000280F0, symSize: 0x40 }
  - { offset: 0x277E8, size: 0x8, addend: 0x0, symName: __ZNSt3__117__compressed_pairIfNS_21__unordered_map_equalINS_12basic_stringIcNS_11char_traitsIcEENS_9allocatorIcEEEENS_17__hash_value_typeIS7_dEENS_8equal_toIS7_EENS_4hashIS7_EELb1EEEEC2B8ne180100IfNS_18__default_init_tagEEEOT_OT0_, symObjAddr: 0x24A10, symBinAddr: 0x100028130, symSize: 0xF0 }
  - { offset: 0x27840, size: 0x8, addend: 0x0, symName: __ZNSt3__122__compressed_pair_elemIfLi0ELb0EEC2B8ne180100IfvEEOT_, symObjAddr: 0x24B00, symBinAddr: 0x100028220, symSize: 0x120 }
  - { offset: 0x27882, size: 0x8, addend: 0x0, symName: __ZNSt3__122__compressed_pair_elemINS_21__unordered_map_equalINS_12basic_stringIcNS_11char_traitsIcEENS_9allocatorIcEEEENS_17__hash_value_typeIS7_dEENS_8equal_toIS7_EENS_4hashIS7_EELb1EEELi1ELb1EEC2B8ne180100ENS_18__default_init_tagE, symObjAddr: 0x24C20, symBinAddr: 0x100028340, symSize: 0x60 }
  - { offset: 0x278B6, size: 0x8, addend: 0x0, symName: __ZNSt3__121__unordered_map_equalINS_12basic_stringIcNS_11char_traitsIcEENS_9allocatorIcEEEENS_17__hash_value_typeIS6_dEENS_8equal_toIS6_EENS_4hashIS6_EELb1EEC2B8ne180100Ev, symObjAddr: 0x24C80, symBinAddr: 0x1000283A0, symSize: 0x40 }
  - { offset: 0x278E0, size: 0x8, addend: 0x0, symName: __ZNKSt3__16vectorIiNS_9allocatorIiEEE11__make_iterB8ne180100EPKi, symObjAddr: 0x24CC0, symBinAddr: 0x1000283E0, symSize: 0x190 }
  - { offset: 0x27917, size: 0x8, addend: 0x0, symName: __ZNSt3__111__wrap_iterIPKiEC1B8ne180100ES2_, symObjAddr: 0x24E50, symBinAddr: 0x100028570, symSize: 0x60 }
  - { offset: 0x2794F, size: 0x8, addend: 0x0, symName: __ZNSt3__111__wrap_iterIPKiEC2B8ne180100ES2_, symObjAddr: 0x24EB0, symBinAddr: 0x1000285D0, symSize: 0x98 }
  - { offset: 0x27987, size: 0x8, addend: 0x0, symName: __ZNKSt3__111__wrap_iterIPKiE4baseB8ne180100Ev, symObjAddr: 0x24FE0, symBinAddr: 0x100028700, symSize: 0x80 }
  - { offset: 0x279AD, size: 0x8, addend: 0x0, symName: __ZNSt3__112__hash_tableINS_17__hash_value_typeINS_12basic_stringIcNS_11char_traitsIcEENS_9allocatorIcEEEEdEENS_22__unordered_map_hasherIS7_S8_NS_4hashIS7_EENS_8equal_toIS7_EELb1EEENS_21__unordered_map_equalIS7_S8_SD_SB_Lb1EEENS5_IS8_EEE16__emplace_uniqueB8ne180100IRKS7_dTnNS_9enable_ifIXsr21__can_extract_map_keyIT_S7_NS_4pairISK_dEEEE5valueEiE4typeELi0EEENSO_INS_15__hash_iteratorIPNS_11__hash_nodeIS8_PvEEEEbEEOSN_OT0_, symObjAddr: 0x25060, symBinAddr: 0x100028780, symSize: 0x110 }
  - { offset: 0x27A09, size: 0x8, addend: 0x0, symName: __ZNSt3__14pairINS_19__hash_map_iteratorINS_15__hash_iteratorIPNS_11__hash_nodeINS_17__hash_value_typeINS_12basic_stringIcNS_11char_traitsIcEENS_9allocatorIcEEEEdEEPvEEEEEEbEC1B8ne180100ISF_bTnNS_9enable_ifIXclsr10_CheckArgsE17__enable_implicitIT_T0_EEEiE4typeELi0EEEONS0_ISK_SL_EE, symObjAddr: 0x25170, symBinAddr: 0x100028890, symSize: 0x60 }
  - { offset: 0x27A59, size: 0x8, addend: 0x0, symName: __ZNSt3__112__hash_tableINS_17__hash_value_typeINS_12basic_stringIcNS_11char_traitsIcEENS_9allocatorIcEEEEdEENS_22__unordered_map_hasherIS7_S8_NS_4hashIS7_EENS_8equal_toIS7_EELb1EEENS_21__unordered_map_equalIS7_S8_SD_SB_Lb1EEENS5_IS8_EEE25__emplace_unique_key_argsIS7_JRKS7_dEEENS_4pairINS_15__hash_iteratorIPNS_11__hash_nodeIS8_PvEEEEbEERKT_DpOT0_, symObjAddr: 0x251D0, symBinAddr: 0x1000288F0, symSize: 0x1B40 }
  - { offset: 0x27B56, size: 0x8, addend: 0x0, symName: __ZNSt3__112__hash_tableINS_17__hash_value_typeINS_12basic_stringIcNS_11char_traitsIcEENS_9allocatorIcEEEEdEENS_22__unordered_map_hasherIS7_S8_NS_4hashIS7_EENS_8equal_toIS7_EELb1EEENS_21__unordered_map_equalIS7_S8_SD_SB_Lb1EEENS5_IS8_EEE13hash_functionB8ne180100Ev, symObjAddr: 0x26D10, symBinAddr: 0x10002A430, symSize: 0xB0 }
  - { offset: 0x27B7C, size: 0x8, addend: 0x0, symName: __ZNKSt3__122__unordered_map_hasherINS_12basic_stringIcNS_11char_traitsIcEENS_9allocatorIcEEEENS_17__hash_value_typeIS6_dEENS_4hashIS6_EENS_8equal_toIS6_EELb1EEclB8ne180100ERKS6_, symObjAddr: 0x26DC0, symBinAddr: 0x10002A4E0, symSize: 0xA0 }
  - { offset: 0x27BB1, size: 0x8, addend: 0x0, symName: __ZNKSt3__112__hash_tableINS_17__hash_value_typeINS_12basic_stringIcNS_11char_traitsIcEENS_9allocatorIcEEEEdEENS_22__unordered_map_hasherIS7_S8_NS_4hashIS7_EENS_8equal_toIS7_EELb1EEENS_21__unordered_map_equalIS7_S8_SD_SB_Lb1EEENS5_IS8_EEE12bucket_countB8ne180100Ev, symObjAddr: 0x26E60, symBinAddr: 0x10002A580, symSize: 0xC8 }
  - { offset: 0x27BD7, size: 0x8, addend: 0x0, symName: __ZNKSt3__110unique_ptrIA_PNS_16__hash_node_baseIPNS_11__hash_nodeINS_17__hash_value_typeINS_12basic_stringIcNS_11char_traitsIcEENS_9allocatorIcEEEEdEEPvEEEENS_25__bucket_list_deallocatorINS7_ISF_EEEEEixB8ne180100Em, symObjAddr: 0x26FE0, symBinAddr: 0x10002A700, symSize: 0x180 }
  - { offset: 0x27C0C, size: 0x8, addend: 0x0, symName: __ZNKSt3__116__hash_node_baseIPNS_11__hash_nodeINS_17__hash_value_typeINS_12basic_stringIcNS_11char_traitsIcEENS_9allocatorIcEEEEdEEPvEEE6__hashB8ne180100Ev, symObjAddr: 0x27160, symBinAddr: 0x10002A880, symSize: 0x110 }
  - { offset: 0x27C32, size: 0x8, addend: 0x0, symName: __ZNSt3__112__hash_tableINS_17__hash_value_typeINS_12basic_stringIcNS_11char_traitsIcEENS_9allocatorIcEEEEdEENS_22__unordered_map_hasherIS7_S8_NS_4hashIS7_EENS_8equal_toIS7_EELb1EEENS_21__unordered_map_equalIS7_S8_SD_SB_Lb1EEENS5_IS8_EEE6key_eqB8ne180100Ev, symObjAddr: 0x27270, symBinAddr: 0x10002A990, symSize: 0xB0 }
  - { offset: 0x27C58, size: 0x8, addend: 0x0, symName: __ZNKSt3__121__unordered_map_equalINS_12basic_stringIcNS_11char_traitsIcEENS_9allocatorIcEEEENS_17__hash_value_typeIS6_dEENS_8equal_toIS6_EENS_4hashIS6_EELb1EEclB8ne180100ERKS8_RKS6_, symObjAddr: 0x27320, symBinAddr: 0x10002AA40, symSize: 0x140 }
  - { offset: 0x27C9C, size: 0x8, addend: 0x0, symName: __ZNSt3__116__hash_node_baseIPNS_11__hash_nodeINS_17__hash_value_typeINS_12basic_stringIcNS_11char_traitsIcEENS_9allocatorIcEEEEdEEPvEEE8__upcastB8ne180100Ev, symObjAddr: 0x27460, symBinAddr: 0x10002AB80, symSize: 0xC0 }
  - { offset: 0x27CC2, size: 0x8, addend: 0x0, symName: __ZNSt3__111__hash_nodeINS_17__hash_value_typeINS_12basic_stringIcNS_11char_traitsIcEENS_9allocatorIcEEEEdEEPvE11__get_valueB8ne180100Ev, symObjAddr: 0x27520, symBinAddr: 0x10002AC40, symSize: 0x90 }
  - { offset: 0x27CE8, size: 0x8, addend: 0x0, symName: __ZNSt3__112__hash_tableINS_17__hash_value_typeINS_12basic_stringIcNS_11char_traitsIcEENS_9allocatorIcEEEEdEENS_22__unordered_map_hasherIS7_S8_NS_4hashIS7_EENS_8equal_toIS7_EELb1EEENS_21__unordered_map_equalIS7_S8_SD_SB_Lb1EEENS5_IS8_EEE21__construct_node_hashIRKS7_JdEEENS_10unique_ptrINS_11__hash_nodeIS8_PvEENS_22__hash_node_destructorINS5_ISP_EEEEEEmOT_DpOT0_, symObjAddr: 0x275B0, symBinAddr: 0x10002ACD0, symSize: 0x710 }
  - { offset: 0x27D77, size: 0x8, addend: 0x0, symName: __ZNSt3__112__hash_tableINS_17__hash_value_typeINS_12basic_stringIcNS_11char_traitsIcEENS_9allocatorIcEEEEdEENS_22__unordered_map_hasherIS7_S8_NS_4hashIS7_EENS_8equal_toIS7_EELb1EEENS_21__unordered_map_equalIS7_S8_SD_SB_Lb1EEENS5_IS8_EEE4sizeB8ne180100Ev, symObjAddr: 0x27CC0, symBinAddr: 0x10002B3E0, symSize: 0xC0 }
  - { offset: 0x27D9D, size: 0x8, addend: 0x0, symName: __ZNSt3__112__hash_tableINS_17__hash_value_typeINS_12basic_stringIcNS_11char_traitsIcEENS_9allocatorIcEEEEdEENS_22__unordered_map_hasherIS7_S8_NS_4hashIS7_EENS_8equal_toIS7_EELb1EEENS_21__unordered_map_equalIS7_S8_SD_SB_Lb1EEENS5_IS8_EEE15max_load_factorB8ne180100Ev, symObjAddr: 0x27D80, symBinAddr: 0x10002B4A0, symSize: 0xC0 }
  - { offset: 0x27DC3, size: 0x8, addend: 0x0, symName: __ZNSt3__112__hash_tableINS_17__hash_value_typeINS_12basic_stringIcNS_11char_traitsIcEENS_9allocatorIcEEEEdEENS_22__unordered_map_hasherIS7_S8_NS_4hashIS7_EENS_8equal_toIS7_EELb1EEENS_21__unordered_map_equalIS7_S8_SD_SB_Lb1EEENS5_IS8_EEE15__rehash_uniqueB8ne180100Em, symObjAddr: 0x27E40, symBinAddr: 0x10002B560, symSize: 0x68 }
  - { offset: 0x27DF8, size: 0x8, addend: 0x0, symName: __ZNSt3__117__compressed_pairINS_16__hash_node_baseIPNS_11__hash_nodeINS_17__hash_value_typeINS_12basic_stringIcNS_11char_traitsIcEENS_9allocatorIcEEEEdEEPvEEEENS7_ISC_EEE5firstB8ne180100Ev, symObjAddr: 0x27F10, symBinAddr: 0x10002B630, symSize: 0xE0 }
  - { offset: 0x27E1E, size: 0x8, addend: 0x0, symName: __ZNSt3__116__hash_node_baseIPNS_11__hash_nodeINS_17__hash_value_typeINS_12basic_stringIcNS_11char_traitsIcEENS_9allocatorIcEEEEdEEPvEEE5__ptrB8ne180100Ev, symObjAddr: 0x27FF0, symBinAddr: 0x10002B710, symSize: 0x80 }
  - { offset: 0x27E44, size: 0x8, addend: 0x0, symName: __ZNKSt3__110unique_ptrINS_11__hash_nodeINS_17__hash_value_typeINS_12basic_stringIcNS_11char_traitsIcEENS_9allocatorIcEEEEdEEPvEENS_22__hash_node_destructorINS6_ISB_EEEEEptB8ne180100Ev, symObjAddr: 0x28070, symBinAddr: 0x10002B790, symSize: 0xF0 }
  - { offset: 0x27E6A, size: 0x8, addend: 0x0, symName: __ZNKSt3__110unique_ptrINS_11__hash_nodeINS_17__hash_value_typeINS_12basic_stringIcNS_11char_traitsIcEENS_9allocatorIcEEEEdEEPvEENS_22__hash_node_destructorINS6_ISB_EEEEE3getB8ne180100Ev, symObjAddr: 0x28160, symBinAddr: 0x10002B880, symSize: 0xF0 }
  - { offset: 0x27E90, size: 0x8, addend: 0x0, symName: __ZNSt3__110unique_ptrINS_11__hash_nodeINS_17__hash_value_typeINS_12basic_stringIcNS_11char_traitsIcEENS_9allocatorIcEEEEdEEPvEENS_22__hash_node_destructorINS6_ISB_EEEEE7releaseB8ne180100Ev, symObjAddr: 0x28250, symBinAddr: 0x10002B970, symSize: 0x190 }
  - { offset: 0x27EC5, size: 0x8, addend: 0x0, symName: __ZNSt3__110unique_ptrINS_11__hash_nodeINS_17__hash_value_typeINS_12basic_stringIcNS_11char_traitsIcEENS_9allocatorIcEEEEdEEPvEENS_22__hash_node_destructorINS6_ISB_EEEEED1B8ne180100Ev, symObjAddr: 0x283E0, symBinAddr: 0x10002BB00, symSize: 0x50 }
  - { offset: 0x27EEF, size: 0x8, addend: 0x0, symName: __ZNSt3__115__hash_iteratorIPNS_11__hash_nodeINS_17__hash_value_typeINS_12basic_stringIcNS_11char_traitsIcEENS_9allocatorIcEEEEdEEPvEEEC1B8ne180100EPNS_16__hash_node_baseISC_EE, symObjAddr: 0x28430, symBinAddr: 0x10002BB50, symSize: 0x60 }
  - { offset: 0x27F2E, size: 0x8, addend: 0x0, symName: __ZNSt3__14pairINS_15__hash_iteratorIPNS_11__hash_nodeINS_17__hash_value_typeINS_12basic_stringIcNS_11char_traitsIcEENS_9allocatorIcEEEEdEEPvEEEEbEC1B8ne180100ISE_RbTnNS_9enable_ifIXclsr10_CheckArgsE17__enable_implicitIT_T0_EEEiE4typeELi0EEEOSJ_OSK_, symObjAddr: 0x28490, symBinAddr: 0x10002BBB0, symSize: 0x60 }
  - { offset: 0x27F8C, size: 0x8, addend: 0x0, symName: __ZNSt3__117__compressed_pairImNS_22__unordered_map_hasherINS_12basic_stringIcNS_11char_traitsIcEENS_9allocatorIcEEEENS_17__hash_value_typeIS7_dEENS_4hashIS7_EENS_8equal_toIS7_EELb1EEEE6secondB8ne180100Ev, symObjAddr: 0x284F0, symBinAddr: 0x10002BC10, symSize: 0xC0 }
  - { offset: 0x27FB2, size: 0x8, addend: 0x0, symName: __ZNSt3__122__compressed_pair_elemINS_22__unordered_map_hasherINS_12basic_stringIcNS_11char_traitsIcEENS_9allocatorIcEEEENS_17__hash_value_typeIS7_dEENS_4hashIS7_EENS_8equal_toIS7_EELb1EEELi1ELb1EE5__getB8ne180100Ev, symObjAddr: 0x285B0, symBinAddr: 0x10002BCD0, symSize: 0x60 }
  - { offset: 0x27FD8, size: 0x8, addend: 0x0, symName: __ZNKSt3__113__string_hashIcNS_9allocatorIcEEEclB8ne180100ERKNS_12basic_stringIcNS_11char_traitsIcEES2_EE, symObjAddr: 0x28610, symBinAddr: 0x10002BD30, symSize: 0x158 }
  - { offset: 0x2800D, size: 0x8, addend: 0x0, symName: __ZNKSt3__112basic_stringIcNS_11char_traitsIcEENS_9allocatorIcEEE4dataB8ne180100Ev, symObjAddr: 0x288D0, symBinAddr: 0x10002BFF0, symSize: 0x60 }
  - { offset: 0x28033, size: 0x8, addend: 0x0, symName: __ZNKSt3__121__murmur2_or_cityhashImLm64EEclB8ne180100EPKvm, symObjAddr: 0x28930, symBinAddr: 0x10002C050, symSize: 0x10D8 }
  - { offset: 0x280DF, size: 0x8, addend: 0x0, symName: __ZNSt3__121__murmur2_or_cityhashImLm64EE18__hash_len_0_to_16B8ne180100EPKcm, symObjAddr: 0x29A08, symBinAddr: 0x10002D128, symSize: 0x600 }
  - { offset: 0x281B8, size: 0x8, addend: 0x0, symName: __ZNSt3__121__murmur2_or_cityhashImLm64EE19__hash_len_17_to_32B8ne180100EPKcm, symObjAddr: 0x2A008, symBinAddr: 0x10002D728, symSize: 0x2C0 }
  - { offset: 0x28221, size: 0x8, addend: 0x0, symName: __ZNSt3__121__murmur2_or_cityhashImLm64EE19__hash_len_33_to_64B8ne180100EPKcm, symObjAddr: 0x2A2C8, symBinAddr: 0x10002D9E8, symSize: 0x7E0 }
  - { offset: 0x282D3, size: 0x8, addend: 0x0, symName: __ZNSt3__121__murmur2_or_cityhashImLm64EE13__hash_len_16B8ne180100Emm, symObjAddr: 0x2AAD8, symBinAddr: 0x10002E1F8, symSize: 0xF0 }
  - { offset: 0x2832E, size: 0x8, addend: 0x0, symName: __ZNSt3__121__murmur2_or_cityhashImLm64EE29__weak_hash_len_32_with_seedsB8ne180100EPKcmm, symObjAddr: 0x2ABC8, symBinAddr: 0x10002E2E8, symSize: 0x180 }
  - { offset: 0x2836D, size: 0x8, addend: 0x0, symName: __ZNSt3__121__murmur2_or_cityhashImLm64EE8__rotateB8ne180100Emi, symObjAddr: 0x2AD48, symBinAddr: 0x10002E468, symSize: 0xF8 }
  - { offset: 0x2839E, size: 0x8, addend: 0x0, symName: __ZNSt3__14pairImmEaSB8ne180100EOS1_, symObjAddr: 0x2AE40, symBinAddr: 0x10002E560, symSize: 0x1D8 }
  - { offset: 0x283D3, size: 0x8, addend: 0x0, symName: __ZNSt3__121__murmur2_or_cityhashImLm64EE11__shift_mixB8ne180100Em, symObjAddr: 0x2B188, symBinAddr: 0x10002E8A8, symSize: 0x60 }
  - { offset: 0x283F6, size: 0x8, addend: 0x0, symName: __ZNSt3__121__murmur2_or_cityhashImLm64EE22__rotate_by_at_least_1B8ne180100Emi, symObjAddr: 0x2B1E8, symBinAddr: 0x10002E908, symSize: 0xE0 }
  - { offset: 0x28427, size: 0x8, addend: 0x0, symName: __ZNSt3__121__murmur2_or_cityhashImLm64EE29__weak_hash_len_32_with_seedsB8ne180100Emmmmmm, symObjAddr: 0x2B2F8, symBinAddr: 0x10002EA18, symSize: 0x278 }
  - { offset: 0x284AB, size: 0x8, addend: 0x0, symName: __ZNSt3__14pairImmEC1B8ne180100ImmTnNS_9enable_ifIXclsr10_CheckArgsE17__enable_implicitIT_T0_EEEiE4typeELi0EEEOS4_OS5_, symObjAddr: 0x2B570, symBinAddr: 0x10002EC90, symSize: 0x60 }
  - { offset: 0x28509, size: 0x8, addend: 0x0, symName: __ZNSt3__14pairImmEC2B8ne180100ImmTnNS_9enable_ifIXclsr10_CheckArgsE17__enable_implicitIT_T0_EEEiE4typeELi0EEEOS4_OS5_, symObjAddr: 0x2B5D0, symBinAddr: 0x10002ECF0, symSize: 0x198 }
  - { offset: 0x28567, size: 0x8, addend: 0x0, symName: __ZNKSt3__112basic_stringIcNS_11char_traitsIcEENS_9allocatorIcEEE13__get_pointerB8ne180100Ev, symObjAddr: 0x2B780, symBinAddr: 0x10002EEA0, symSize: 0x80 }
  - { offset: 0x2858D, size: 0x8, addend: 0x0, symName: __ZNKSt3__112basic_stringIcNS_11char_traitsIcEENS_9allocatorIcEEE18__get_long_pointerB8ne180100Ev, symObjAddr: 0x2B800, symBinAddr: 0x10002EF20, symSize: 0x180 }
  - { offset: 0x285B3, size: 0x8, addend: 0x0, symName: __ZNKSt3__112basic_stringIcNS_11char_traitsIcEENS_9allocatorIcEEE19__get_short_pointerB8ne180100Ev, symObjAddr: 0x2B980, symBinAddr: 0x10002F0A0, symSize: 0x158 }
  - { offset: 0x285D9, size: 0x8, addend: 0x0, symName: __ZNSt3__114pointer_traitsIPKcE10pointer_toB8ne180100ERS1_, symObjAddr: 0x2BAD8, symBinAddr: 0x10002F1F8, symSize: 0x18 }
  - { offset: 0x285FC, size: 0x8, addend: 0x0, symName: __ZNKSt3__110unique_ptrIA_PNS_16__hash_node_baseIPNS_11__hash_nodeINS_17__hash_value_typeINS_12basic_stringIcNS_11char_traitsIcEENS_9allocatorIcEEEEdEEPvEEEENS_25__bucket_list_deallocatorINS7_ISF_EEEEE11get_deleterB8ne180100Ev, symObjAddr: 0x2BAF0, symBinAddr: 0x10002F210, symSize: 0xC0 }
  - { offset: 0x28622, size: 0x8, addend: 0x0, symName: __ZNKSt3__125__bucket_list_deallocatorINS_9allocatorIPNS_16__hash_node_baseIPNS_11__hash_nodeINS_17__hash_value_typeINS_12basic_stringIcNS_11char_traitsIcEENS1_IcEEEEdEEPvEEEEEEE4sizeB8ne180100Ev, symObjAddr: 0x2BBB0, symBinAddr: 0x10002F2D0, symSize: 0xF0 }
  - { offset: 0x28648, size: 0x8, addend: 0x0, symName: __ZNKSt3__117__compressed_pairIPPNS_16__hash_node_baseIPNS_11__hash_nodeINS_17__hash_value_typeINS_12basic_stringIcNS_11char_traitsIcEENS_9allocatorIcEEEEdEEPvEEEENS_25__bucket_list_deallocatorINS7_ISF_EEEEE6secondB8ne180100Ev, symObjAddr: 0x2BCA0, symBinAddr: 0x10002F3C0, symSize: 0xE0 }
  - { offset: 0x2866E, size: 0x8, addend: 0x0, symName: __ZNKSt3__122__compressed_pair_elemINS_25__bucket_list_deallocatorINS_9allocatorIPNS_16__hash_node_baseIPNS_11__hash_nodeINS_17__hash_value_typeINS_12basic_stringIcNS_11char_traitsIcEENS2_IcEEEEdEEPvEEEEEEEELi1ELb0EE5__getB8ne180100Ev, symObjAddr: 0x2BD80, symBinAddr: 0x10002F4A0, symSize: 0x80 }
  - { offset: 0x28694, size: 0x8, addend: 0x0, symName: __ZNKSt3__117__compressed_pairImNS_9allocatorIPNS_16__hash_node_baseIPNS_11__hash_nodeINS_17__hash_value_typeINS_12basic_stringIcNS_11char_traitsIcEENS1_IcEEEEdEEPvEEEEEEE5firstB8ne180100Ev, symObjAddr: 0x2BE00, symBinAddr: 0x10002F520, symSize: 0xE0 }
  - { offset: 0x286BA, size: 0x8, addend: 0x0, symName: __ZNKSt3__122__compressed_pair_elemImLi0ELb0EE5__getB8ne180100Ev, symObjAddr: 0x2BEE0, symBinAddr: 0x10002F600, symSize: 0x80 }
  - { offset: 0x286E0, size: 0x8, addend: 0x0, symName: __ZNKSt3__117__compressed_pairIPPNS_16__hash_node_baseIPNS_11__hash_nodeINS_17__hash_value_typeINS_12basic_stringIcNS_11char_traitsIcEENS_9allocatorIcEEEEdEEPvEEEENS_25__bucket_list_deallocatorINS7_ISF_EEEEE5firstB8ne180100Ev, symObjAddr: 0x2BF60, symBinAddr: 0x10002F680, symSize: 0xE0 }
  - { offset: 0x28706, size: 0x8, addend: 0x0, symName: __ZNKSt3__122__compressed_pair_elemIPPNS_16__hash_node_baseIPNS_11__hash_nodeINS_17__hash_value_typeINS_12basic_stringIcNS_11char_traitsIcEENS_9allocatorIcEEEEdEEPvEEEELi0ELb0EE5__getB8ne180100Ev, symObjAddr: 0x2C040, symBinAddr: 0x10002F760, symSize: 0x80 }
  - { offset: 0x2872C, size: 0x8, addend: 0x0, symName: __ZNSt3__117__compressed_pairIfNS_21__unordered_map_equalINS_12basic_stringIcNS_11char_traitsIcEENS_9allocatorIcEEEENS_17__hash_value_typeIS7_dEENS_8equal_toIS7_EENS_4hashIS7_EELb1EEEE6secondB8ne180100Ev, symObjAddr: 0x2C0C0, symBinAddr: 0x10002F7E0, symSize: 0xC0 }
  - { offset: 0x28752, size: 0x8, addend: 0x0, symName: __ZNSt3__122__compressed_pair_elemINS_21__unordered_map_equalINS_12basic_stringIcNS_11char_traitsIcEENS_9allocatorIcEEEENS_17__hash_value_typeIS7_dEENS_8equal_toIS7_EENS_4hashIS7_EELb1EEELi1ELb1EE5__getB8ne180100Ev, symObjAddr: 0x2C180, symBinAddr: 0x10002F8A0, symSize: 0x60 }
  - { offset: 0x28778, size: 0x8, addend: 0x0, symName: __ZNKSt3__18equal_toINS_12basic_stringIcNS_11char_traitsIcEENS_9allocatorIcEEEEEclB8ne180100ERKS6_S9_, symObjAddr: 0x2C1E0, symBinAddr: 0x10002F900, symSize: 0xC0 }
  - { offset: 0x287BC, size: 0x8, addend: 0x0, symName: __ZNKSt3__117__hash_value_typeINS_12basic_stringIcNS_11char_traitsIcEENS_9allocatorIcEEEEdE11__get_valueB8ne180100Ev, symObjAddr: 0x2C2A0, symBinAddr: 0x10002F9C0, symSize: 0x98 }
  - { offset: 0x287E2, size: 0x8, addend: 0x0, symName: __ZNSt3__111char_traitsIcE7compareB8ne180100EPKcS3_m, symObjAddr: 0x2C6B8, symBinAddr: 0x10002FDD8, symSize: 0x40 }
  - { offset: 0x28821, size: 0x8, addend: 0x0, symName: __ZNSt3__114pointer_traitsIPNS_16__hash_node_baseIPNS_11__hash_nodeINS_17__hash_value_typeINS_12basic_stringIcNS_11char_traitsIcEENS_9allocatorIcEEEEdEEPvEEEEE10pointer_toB8ne180100ERSE_, symObjAddr: 0x2C748, symBinAddr: 0x10002FE68, symSize: 0x18 }
  - { offset: 0x28844, size: 0x8, addend: 0x0, symName: __ZNSt3__112__hash_tableINS_17__hash_value_typeINS_12basic_stringIcNS_11char_traitsIcEENS_9allocatorIcEEEEdEENS_22__unordered_map_hasherIS7_S8_NS_4hashIS7_EENS_8equal_toIS7_EELb1EEENS_21__unordered_map_equalIS7_S8_SD_SB_Lb1EEENS5_IS8_EEE12__node_allocB8ne180100Ev, symObjAddr: 0x2C760, symBinAddr: 0x10002FE80, symSize: 0xB8 }
  - { offset: 0x2886A, size: 0x8, addend: 0x0, symName: __ZNSt3__116allocator_traitsINS_9allocatorINS_11__hash_nodeINS_17__hash_value_typeINS_12basic_stringIcNS_11char_traitsIcEENS1_IcEEEEdEEPvEEEEE8allocateB8ne180100ERSC_m, symObjAddr: 0x2C818, symBinAddr: 0x10002FF38, symSize: 0x28 }
  - { offset: 0x2889D, size: 0x8, addend: 0x0, symName: __ZNSt3__122__hash_node_destructorINS_9allocatorINS_11__hash_nodeINS_17__hash_value_typeINS_12basic_stringIcNS_11char_traitsIcEENS1_IcEEEEdEEPvEEEEEC1B8ne180100ERSC_b, symObjAddr: 0x2C840, symBinAddr: 0x10002FF60, symSize: 0xA0 }
  - { offset: 0x288EB, size: 0x8, addend: 0x0, symName: __ZNSt3__110unique_ptrINS_11__hash_nodeINS_17__hash_value_typeINS_12basic_stringIcNS_11char_traitsIcEENS_9allocatorIcEEEEdEEPvEENS_22__hash_node_destructorINS6_ISB_EEEEEC1B8ne180100ILb1EvEEPSB_NS_16__dependent_typeINS_27__unique_ptr_deleter_sfinaeISE_EEXT_EE20__good_rval_ref_typeE, symObjAddr: 0x2C8E0, symBinAddr: 0x100030000, symSize: 0x68 }
  - { offset: 0x2893C, size: 0x8, addend: 0x0, symName: __ZNKSt3__110unique_ptrINS_11__hash_nodeINS_17__hash_value_typeINS_12basic_stringIcNS_11char_traitsIcEENS_9allocatorIcEEEEdEEPvEENS_22__hash_node_destructorINS6_ISB_EEEEEdeB8ne180100Ev, symObjAddr: 0x2C9F0, symBinAddr: 0x100030110, symSize: 0x128 }
  - { offset: 0x28962, size: 0x8, addend: 0x0, symName: __ZNSt3__116allocator_traitsINS_9allocatorINS_11__hash_nodeINS_17__hash_value_typeINS_12basic_stringIcNS_11char_traitsIcEENS1_IcEEEEdEEPvEEEEE9constructB8ne180100INS_4pairIKS8_dEEJRSG_dEvvEEvRSC_PT_DpOT0_, symObjAddr: 0x2CB18, symBinAddr: 0x100030238, symSize: 0xB0 }
  - { offset: 0x289CA, size: 0x8, addend: 0x0, symName: __ZNSt3__122__hash_key_value_typesINS_17__hash_value_typeINS_12basic_stringIcNS_11char_traitsIcEENS_9allocatorIcEEEEdEEE9__get_ptrB8ne180100ERS8_, symObjAddr: 0x2CBC8, symBinAddr: 0x1000302E8, symSize: 0x48 }
  - { offset: 0x289ED, size: 0x8, addend: 0x0, symName: __ZNSt3__110unique_ptrINS_11__hash_nodeINS_17__hash_value_typeINS_12basic_stringIcNS_11char_traitsIcEENS_9allocatorIcEEEEdEEPvEENS_22__hash_node_destructorINS6_ISB_EEEEE11get_deleterB8ne180100Ev, symObjAddr: 0x2CC10, symBinAddr: 0x100030330, symSize: 0xC0 }
  - { offset: 0x28A13, size: 0x8, addend: 0x0, symName: __ZNSt3__117__compressed_pairINS_16__hash_node_baseIPNS_11__hash_nodeINS_17__hash_value_typeINS_12basic_stringIcNS_11char_traitsIcEENS_9allocatorIcEEEEdEEPvEEEENS7_ISC_EEE6secondB8ne180100Ev, symObjAddr: 0x2CCD0, symBinAddr: 0x1000303F0, symSize: 0xC0 }
  - { offset: 0x28A39, size: 0x8, addend: 0x0, symName: __ZNSt3__122__compressed_pair_elemINS_9allocatorINS_11__hash_nodeINS_17__hash_value_typeINS_12basic_stringIcNS_11char_traitsIcEENS1_IcEEEEdEEPvEEEELi1ELb1EE5__getB8ne180100Ev, symObjAddr: 0x2CD90, symBinAddr: 0x1000304B0, symSize: 0x60 }
  - { offset: 0x28A5F, size: 0x8, addend: 0x0, symName: __ZNSt3__19allocatorINS_11__hash_nodeINS_17__hash_value_typeINS_12basic_stringIcNS_11char_traitsIcEENS0_IcEEEEdEEPvEEE8allocateB8ne180100Em, symObjAddr: 0x2CDF0, symBinAddr: 0x100030510, symSize: 0xB8 }
  - { offset: 0x28A9E, size: 0x8, addend: 0x0, symName: __ZNSt3__116allocator_traitsINS_9allocatorINS_11__hash_nodeINS_17__hash_value_typeINS_12basic_stringIcNS_11char_traitsIcEENS1_IcEEEEdEEPvEEEEE8max_sizeB8ne180100ISC_vvEEmRKSC_, symObjAddr: 0x2CEA8, symBinAddr: 0x1000305C8, symSize: 0x48 }
  - { offset: 0x28AC9, size: 0x8, addend: 0x0, symName: __ZNSt3__122__hash_node_destructorINS_9allocatorINS_11__hash_nodeINS_17__hash_value_typeINS_12basic_stringIcNS_11char_traitsIcEENS1_IcEEEEdEEPvEEEEEC2B8ne180100ERSC_b, symObjAddr: 0x2CEF0, symBinAddr: 0x100030610, symSize: 0x130 }
  - { offset: 0x28B11, size: 0x8, addend: 0x0, symName: __ZNSt3__110unique_ptrINS_11__hash_nodeINS_17__hash_value_typeINS_12basic_stringIcNS_11char_traitsIcEENS_9allocatorIcEEEEdEEPvEENS_22__hash_node_destructorINS6_ISB_EEEEEC2B8ne180100ILb1EvEEPSB_NS_16__dependent_typeINS_27__unique_ptr_deleter_sfinaeISE_EEXT_EE20__good_rval_ref_typeE, symObjAddr: 0x2D020, symBinAddr: 0x100030740, symSize: 0x1E0 }
  - { offset: 0x28B68, size: 0x8, addend: 0x0, symName: __ZNSt3__117__compressed_pairIPNS_11__hash_nodeINS_17__hash_value_typeINS_12basic_stringIcNS_11char_traitsIcEENS_9allocatorIcEEEEdEEPvEENS_22__hash_node_destructorINS6_ISB_EEEEEC1B8ne180100IRSC_SF_EEOT_OT0_, symObjAddr: 0x2D200, symBinAddr: 0x100030920, symSize: 0x60 }
  - { offset: 0x28BC0, size: 0x8, addend: 0x0, symName: __ZNSt3__117__compressed_pairIPNS_11__hash_nodeINS_17__hash_value_typeINS_12basic_stringIcNS_11char_traitsIcEENS_9allocatorIcEEEEdEEPvEENS_22__hash_node_destructorINS6_ISB_EEEEEC2B8ne180100IRSC_SF_EEOT_OT0_, symObjAddr: 0x2D260, symBinAddr: 0x100030980, symSize: 0x140 }
  - { offset: 0x28C18, size: 0x8, addend: 0x0, symName: __ZNSt3__122__compressed_pair_elemIPNS_11__hash_nodeINS_17__hash_value_typeINS_12basic_stringIcNS_11char_traitsIcEENS_9allocatorIcEEEEdEEPvEELi0ELb0EEC2B8ne180100IRSC_vEEOT_, symObjAddr: 0x2D3A0, symBinAddr: 0x100030AC0, symSize: 0xF0 }
  - { offset: 0x28C5A, size: 0x8, addend: 0x0, symName: __ZNSt3__122__compressed_pair_elemINS_22__hash_node_destructorINS_9allocatorINS_11__hash_nodeINS_17__hash_value_typeINS_12basic_stringIcNS_11char_traitsIcEENS2_IcEEEEdEEPvEEEEEELi1ELb0EEC2B8ne180100ISE_vEEOT_, symObjAddr: 0x2D490, symBinAddr: 0x100030BB0, symSize: 0x68 }
  - { offset: 0x28C9C, size: 0x8, addend: 0x0, symName: __ZNSt3__111__hash_nodeINS_17__hash_value_typeINS_12basic_stringIcNS_11char_traitsIcEENS_9allocatorIcEEEEdEEPvEC1B8ne180100EPNS_16__hash_node_baseIPSA_EEm, symObjAddr: 0x2D600, symBinAddr: 0x100030D20, symSize: 0x60 }
  - { offset: 0x28CE2, size: 0x8, addend: 0x0, symName: __ZNSt3__111__hash_nodeINS_17__hash_value_typeINS_12basic_stringIcNS_11char_traitsIcEENS_9allocatorIcEEEEdEEPvEC2B8ne180100EPNS_16__hash_node_baseIPSA_EEm, symObjAddr: 0x2D660, symBinAddr: 0x100030D80, symSize: 0xE0 }
  - { offset: 0x28D28, size: 0x8, addend: 0x0, symName: __ZNSt3__116__hash_node_baseIPNS_11__hash_nodeINS_17__hash_value_typeINS_12basic_stringIcNS_11char_traitsIcEENS_9allocatorIcEEEEdEEPvEEEC2B8ne180100EPSD_, symObjAddr: 0x2D740, symBinAddr: 0x100030E60, symSize: 0x90 }
  - { offset: 0x28D60, size: 0x8, addend: 0x0, symName: __ZNKSt3__117__compressed_pairIPNS_11__hash_nodeINS_17__hash_value_typeINS_12basic_stringIcNS_11char_traitsIcEENS_9allocatorIcEEEEdEEPvEENS_22__hash_node_destructorINS6_ISB_EEEEE5firstB8ne180100Ev, symObjAddr: 0x2D7D0, symBinAddr: 0x100030EF0, symSize: 0xE0 }
  - { offset: 0x28D86, size: 0x8, addend: 0x0, symName: __ZNKSt3__122__compressed_pair_elemIPNS_11__hash_nodeINS_17__hash_value_typeINS_12basic_stringIcNS_11char_traitsIcEENS_9allocatorIcEEEEdEEPvEELi0ELb0EE5__getB8ne180100Ev, symObjAddr: 0x2D8B0, symBinAddr: 0x100030FD0, symSize: 0x88 }
  - { offset: 0x28DAC, size: 0x8, addend: 0x0, symName: __ZNSt3__14pairIKNS_12basic_stringIcNS_11char_traitsIcEENS_9allocatorIcEEEEdEC1B8ne180100IRS7_dTnNS_9enable_ifIXclsr10_CheckArgsE17__enable_implicitIT_T0_EEEiE4typeELi0EEEOSC_OSD_, symObjAddr: 0x2DAF0, symBinAddr: 0x100031210, symSize: 0x60 }
  - { offset: 0x28E0A, size: 0x8, addend: 0x0, symName: __ZNSt3__14pairIKNS_12basic_stringIcNS_11char_traitsIcEENS_9allocatorIcEEEEdEC2B8ne180100IRS7_dTnNS_9enable_ifIXclsr10_CheckArgsE17__enable_implicitIT_T0_EEEiE4typeELi0EEEOSC_OSD_, symObjAddr: 0x2DB50, symBinAddr: 0x100031270, symSize: 0x140 }
  - { offset: 0x28E68, size: 0x8, addend: 0x0, symName: __ZNSt3__117__hash_value_typeINS_12basic_stringIcNS_11char_traitsIcEENS_9allocatorIcEEEEdE11__get_valueB8ne180100Ev, symObjAddr: 0x2DC90, symBinAddr: 0x1000313B0, symSize: 0x98 }
  - { offset: 0x28E8E, size: 0x8, addend: 0x0, symName: __ZNSt3__117__compressed_pairIPNS_11__hash_nodeINS_17__hash_value_typeINS_12basic_stringIcNS_11char_traitsIcEENS_9allocatorIcEEEEdEEPvEENS_22__hash_node_destructorINS6_ISB_EEEEE6secondB8ne180100Ev, symObjAddr: 0x2DD70, symBinAddr: 0x100031490, symSize: 0xE0 }
  - { offset: 0x28EB4, size: 0x8, addend: 0x0, symName: __ZNSt3__122__compressed_pair_elemINS_22__hash_node_destructorINS_9allocatorINS_11__hash_nodeINS_17__hash_value_typeINS_12basic_stringIcNS_11char_traitsIcEENS2_IcEEEEdEEPvEEEEEELi1ELb0EE5__getB8ne180100Ev, symObjAddr: 0x2DE50, symBinAddr: 0x100031570, symSize: 0x80 }
  - { offset: 0x28EDA, size: 0x8, addend: 0x0, symName: __ZNSt3__117__compressed_pairImNS_22__unordered_map_hasherINS_12basic_stringIcNS_11char_traitsIcEENS_9allocatorIcEEEENS_17__hash_value_typeIS7_dEENS_4hashIS7_EENS_8equal_toIS7_EELb1EEEE5firstB8ne180100Ev, symObjAddr: 0x2DED0, symBinAddr: 0x1000315F0, symSize: 0xE0 }
  - { offset: 0x28F00, size: 0x8, addend: 0x0, symName: __ZNSt3__122__compressed_pair_elemImLi0ELb0EE5__getB8ne180100Ev, symObjAddr: 0x2DFB0, symBinAddr: 0x1000316D0, symSize: 0x80 }
  - { offset: 0x28F26, size: 0x8, addend: 0x0, symName: __ZNSt3__117__compressed_pairIfNS_21__unordered_map_equalINS_12basic_stringIcNS_11char_traitsIcEENS_9allocatorIcEEEENS_17__hash_value_typeIS7_dEENS_8equal_toIS7_EENS_4hashIS7_EELb1EEEE5firstB8ne180100Ev, symObjAddr: 0x2E030, symBinAddr: 0x100031750, symSize: 0xE0 }
  - { offset: 0x28F4C, size: 0x8, addend: 0x0, symName: __ZNSt3__122__compressed_pair_elemIfLi0ELb0EE5__getB8ne180100Ev, symObjAddr: 0x2E110, symBinAddr: 0x100031830, symSize: 0x80 }
  - { offset: 0x28F72, size: 0x8, addend: 0x0, symName: __ZNSt3__112__hash_tableINS_17__hash_value_typeINS_12basic_stringIcNS_11char_traitsIcEENS_9allocatorIcEEEEdEENS_22__unordered_map_hasherIS7_S8_NS_4hashIS7_EENS_8equal_toIS7_EELb1EEENS_21__unordered_map_equalIS7_S8_SD_SB_Lb1EEENS5_IS8_EEE8__rehashILb1EEEvm, symObjAddr: 0x2E190, symBinAddr: 0x1000318B0, symSize: 0x6E0 }
  - { offset: 0x28FC6, size: 0x8, addend: 0x0, symName: __ZNSt3__112__hash_tableINS_17__hash_value_typeINS_12basic_stringIcNS_11char_traitsIcEENS_9allocatorIcEEEEdEENS_22__unordered_map_hasherIS7_S8_NS_4hashIS7_EENS_8equal_toIS7_EELb1EEENS_21__unordered_map_equalIS7_S8_SD_SB_Lb1EEENS5_IS8_EEE11__do_rehashILb1EEEvm, symObjAddr: 0x2E870, symBinAddr: 0x100031F90, symSize: 0xE18 }
  - { offset: 0x290A7, size: 0x8, addend: 0x0, symName: __ZNSt3__110unique_ptrIA_PNS_16__hash_node_baseIPNS_11__hash_nodeINS_17__hash_value_typeINS_12basic_stringIcNS_11char_traitsIcEENS_9allocatorIcEEEEdEEPvEEEENS_25__bucket_list_deallocatorINS7_ISF_EEEEE11get_deleterB8ne180100Ev, symObjAddr: 0x2F740, symBinAddr: 0x100032E60, symSize: 0xC0 }
  - { offset: 0x290CD, size: 0x8, addend: 0x0, symName: __ZNSt3__125__bucket_list_deallocatorINS_9allocatorIPNS_16__hash_node_baseIPNS_11__hash_nodeINS_17__hash_value_typeINS_12basic_stringIcNS_11char_traitsIcEENS1_IcEEEEdEEPvEEEEEEE7__allocB8ne180100Ev, symObjAddr: 0x2F800, symBinAddr: 0x100032F20, symSize: 0xB0 }
  - { offset: 0x290F3, size: 0x8, addend: 0x0, symName: __ZNSt3__110unique_ptrIA_PNS_16__hash_node_baseIPNS_11__hash_nodeINS_17__hash_value_typeINS_12basic_stringIcNS_11char_traitsIcEENS_9allocatorIcEEEEdEEPvEEEENS_25__bucket_list_deallocatorINS7_ISF_EEEEE5resetB8ne180100IPSF_TnNS_9enable_ifIXsr28_CheckArrayPointerConversionIT_EE5valueEiE4typeELi0EEEvSO_, symObjAddr: 0x2F8B0, symBinAddr: 0x100032FD0, symSize: 0x228 }
  - { offset: 0x29146, size: 0x8, addend: 0x0, symName: __ZNSt3__116allocator_traitsINS_9allocatorIPNS_16__hash_node_baseIPNS_11__hash_nodeINS_17__hash_value_typeINS_12basic_stringIcNS_11char_traitsIcEENS1_IcEEEEdEEPvEEEEEEE8allocateB8ne180100ERSG_m, symObjAddr: 0x2FAD8, symBinAddr: 0x1000331F8, symSize: 0x28 }
  - { offset: 0x29179, size: 0x8, addend: 0x0, symName: __ZNSt3__125__bucket_list_deallocatorINS_9allocatorIPNS_16__hash_node_baseIPNS_11__hash_nodeINS_17__hash_value_typeINS_12basic_stringIcNS_11char_traitsIcEENS1_IcEEEEdEEPvEEEEEEE4sizeB8ne180100Ev, symObjAddr: 0x2FB00, symBinAddr: 0x100033220, symSize: 0xC0 }
  - { offset: 0x2919F, size: 0x8, addend: 0x0, symName: __ZNSt3__117__compressed_pairIPPNS_16__hash_node_baseIPNS_11__hash_nodeINS_17__hash_value_typeINS_12basic_stringIcNS_11char_traitsIcEENS_9allocatorIcEEEEdEEPvEEEENS_25__bucket_list_deallocatorINS7_ISF_EEEEE6secondB8ne180100Ev, symObjAddr: 0x2FBC0, symBinAddr: 0x1000332E0, symSize: 0xE0 }
  - { offset: 0x291C5, size: 0x8, addend: 0x0, symName: __ZNSt3__122__compressed_pair_elemINS_25__bucket_list_deallocatorINS_9allocatorIPNS_16__hash_node_baseIPNS_11__hash_nodeINS_17__hash_value_typeINS_12basic_stringIcNS_11char_traitsIcEENS2_IcEEEEdEEPvEEEEEEEELi1ELb0EE5__getB8ne180100Ev, symObjAddr: 0x2FCA0, symBinAddr: 0x1000333C0, symSize: 0x80 }
  - { offset: 0x291EB, size: 0x8, addend: 0x0, symName: __ZNSt3__117__compressed_pairImNS_9allocatorIPNS_16__hash_node_baseIPNS_11__hash_nodeINS_17__hash_value_typeINS_12basic_stringIcNS_11char_traitsIcEENS1_IcEEEEdEEPvEEEEEEE6secondB8ne180100Ev, symObjAddr: 0x2FD20, symBinAddr: 0x100033440, symSize: 0xC0 }
  - { offset: 0x29211, size: 0x8, addend: 0x0, symName: __ZNSt3__122__compressed_pair_elemINS_9allocatorIPNS_16__hash_node_baseIPNS_11__hash_nodeINS_17__hash_value_typeINS_12basic_stringIcNS_11char_traitsIcEENS1_IcEEEEdEEPvEEEEEELi1ELb1EE5__getB8ne180100Ev, symObjAddr: 0x2FDE0, symBinAddr: 0x100033500, symSize: 0x60 }
  - { offset: 0x29237, size: 0x8, addend: 0x0, symName: __ZNSt3__117__compressed_pairIPPNS_16__hash_node_baseIPNS_11__hash_nodeINS_17__hash_value_typeINS_12basic_stringIcNS_11char_traitsIcEENS_9allocatorIcEEEEdEEPvEEEENS_25__bucket_list_deallocatorINS7_ISF_EEEEE5firstB8ne180100Ev, symObjAddr: 0x2FE40, symBinAddr: 0x100033560, symSize: 0xE0 }
  - { offset: 0x2925D, size: 0x8, addend: 0x0, symName: __ZNSt3__125__bucket_list_deallocatorINS_9allocatorIPNS_16__hash_node_baseIPNS_11__hash_nodeINS_17__hash_value_typeINS_12basic_stringIcNS_11char_traitsIcEENS1_IcEEEEdEEPvEEEEEEEclB8ne180100EPSF_, symObjAddr: 0x2FF20, symBinAddr: 0x100033640, symSize: 0x100 }
  - { offset: 0x29292, size: 0x8, addend: 0x0, symName: __ZNSt3__122__compressed_pair_elemIPPNS_16__hash_node_baseIPNS_11__hash_nodeINS_17__hash_value_typeINS_12basic_stringIcNS_11char_traitsIcEENS_9allocatorIcEEEEdEEPvEEEELi0ELb0EE5__getB8ne180100Ev, symObjAddr: 0x30020, symBinAddr: 0x100033740, symSize: 0x88 }
  - { offset: 0x292B8, size: 0x8, addend: 0x0, symName: __ZNSt3__116allocator_traitsINS_9allocatorIPNS_16__hash_node_baseIPNS_11__hash_nodeINS_17__hash_value_typeINS_12basic_stringIcNS_11char_traitsIcEENS1_IcEEEEdEEPvEEEEEEE10deallocateB8ne180100ERSG_PSF_m, symObjAddr: 0x300A8, symBinAddr: 0x1000337C8, symSize: 0x38 }
  - { offset: 0x292FA, size: 0x8, addend: 0x0, symName: __ZNSt3__19allocatorIPNS_16__hash_node_baseIPNS_11__hash_nodeINS_17__hash_value_typeINS_12basic_stringIcNS_11char_traitsIcEENS0_IcEEEEdEEPvEEEEE10deallocateB8ne180100EPSE_m, symObjAddr: 0x300E0, symBinAddr: 0x100033800, symSize: 0x70 }
  - { offset: 0x2933C, size: 0x8, addend: 0x0, symName: __ZNSt3__19allocatorIPNS_16__hash_node_baseIPNS_11__hash_nodeINS_17__hash_value_typeINS_12basic_stringIcNS_11char_traitsIcEENS0_IcEEEEdEEPvEEEEE8allocateB8ne180100Em, symObjAddr: 0x30150, symBinAddr: 0x100033870, symSize: 0xB8 }
  - { offset: 0x2937B, size: 0x8, addend: 0x0, symName: __ZNSt3__116allocator_traitsINS_9allocatorIPNS_16__hash_node_baseIPNS_11__hash_nodeINS_17__hash_value_typeINS_12basic_stringIcNS_11char_traitsIcEENS1_IcEEEEdEEPvEEEEEEE8max_sizeB8ne180100ISG_vvEEmRKSG_, symObjAddr: 0x30208, symBinAddr: 0x100033928, symSize: 0x48 }
  - { offset: 0x293A6, size: 0x8, addend: 0x0, symName: __ZNSt3__117__compressed_pairImNS_9allocatorIPNS_16__hash_node_baseIPNS_11__hash_nodeINS_17__hash_value_typeINS_12basic_stringIcNS_11char_traitsIcEENS1_IcEEEEdEEPvEEEEEEE5firstB8ne180100Ev, symObjAddr: 0x30250, symBinAddr: 0x100033970, symSize: 0xE8 }
  - { offset: 0x293CC, size: 0x8, addend: 0x0, symName: __ZNSt3__122__compressed_pair_elemINS_16__hash_node_baseIPNS_11__hash_nodeINS_17__hash_value_typeINS_12basic_stringIcNS_11char_traitsIcEENS_9allocatorIcEEEEdEEPvEEEELi0ELb0EE5__getB8ne180100Ev, symObjAddr: 0x30380, symBinAddr: 0x100033AA0, symSize: 0x80 }
  - { offset: 0x293F2, size: 0x8, addend: 0x0, symName: __ZNSt3__117__compressed_pairIPNS_11__hash_nodeINS_17__hash_value_typeINS_12basic_stringIcNS_11char_traitsIcEENS_9allocatorIcEEEEdEEPvEENS_22__hash_node_destructorINS6_ISB_EEEEE5firstB8ne180100Ev, symObjAddr: 0x30400, symBinAddr: 0x100033B20, symSize: 0xE0 }
  - { offset: 0x29418, size: 0x8, addend: 0x0, symName: __ZNSt3__122__compressed_pair_elemIPNS_11__hash_nodeINS_17__hash_value_typeINS_12basic_stringIcNS_11char_traitsIcEENS_9allocatorIcEEEEdEEPvEELi0ELb0EE5__getB8ne180100Ev, symObjAddr: 0x304E0, symBinAddr: 0x100033C00, symSize: 0x80 }
  - { offset: 0x2943E, size: 0x8, addend: 0x0, symName: __ZNSt3__110unique_ptrINS_11__hash_nodeINS_17__hash_value_typeINS_12basic_stringIcNS_11char_traitsIcEENS_9allocatorIcEEEEdEEPvEENS_22__hash_node_destructorINS6_ISB_EEEEED2B8ne180100Ev, symObjAddr: 0x30560, symBinAddr: 0x100033C80, symSize: 0x60 }
  - { offset: 0x29468, size: 0x8, addend: 0x0, symName: __ZNSt3__110unique_ptrINS_11__hash_nodeINS_17__hash_value_typeINS_12basic_stringIcNS_11char_traitsIcEENS_9allocatorIcEEEEdEEPvEENS_22__hash_node_destructorINS6_ISB_EEEEE5resetB8ne180100EPSB_, symObjAddr: 0x305C0, symBinAddr: 0x100033CE0, symSize: 0x220 }
  - { offset: 0x294AC, size: 0x8, addend: 0x0, symName: __ZNSt3__122__hash_node_destructorINS_9allocatorINS_11__hash_nodeINS_17__hash_value_typeINS_12basic_stringIcNS_11char_traitsIcEENS1_IcEEEEdEEPvEEEEEclB8ne180100EPSB_, symObjAddr: 0x307E0, symBinAddr: 0x100033F00, symSize: 0x248 }
  - { offset: 0x294E1, size: 0x8, addend: 0x0, symName: __ZNSt3__116allocator_traitsINS_9allocatorINS_11__hash_nodeINS_17__hash_value_typeINS_12basic_stringIcNS_11char_traitsIcEENS1_IcEEEEdEEPvEEEEE7destroyB8ne180100INS_4pairIKS8_dEEvvEEvRSC_PT_, symObjAddr: 0x30A28, symBinAddr: 0x100034148, symSize: 0x30 }
  - { offset: 0x2951B, size: 0x8, addend: 0x0, symName: __ZNSt3__116allocator_traitsINS_9allocatorINS_11__hash_nodeINS_17__hash_value_typeINS_12basic_stringIcNS_11char_traitsIcEENS1_IcEEEEdEEPvEEEEE10deallocateB8ne180100ERSC_PSB_m, symObjAddr: 0x30AB8, symBinAddr: 0x1000341D8, symSize: 0x40 }
  - { offset: 0x2955D, size: 0x8, addend: 0x0, symName: __ZNSt3__14pairIKNS_12basic_stringIcNS_11char_traitsIcEENS_9allocatorIcEEEEdED1Ev, symObjAddr: 0x30B50, symBinAddr: 0x100034270, symSize: 0x50 }
  - { offset: 0x29589, size: 0x8, addend: 0x0, symName: __ZNSt3__14pairIKNS_12basic_stringIcNS_11char_traitsIcEENS_9allocatorIcEEEEdED2Ev, symObjAddr: 0x30BA0, symBinAddr: 0x1000342C0, symSize: 0x50 }
  - { offset: 0x295B5, size: 0x8, addend: 0x0, symName: __ZNSt3__111__hash_nodeINS_17__hash_value_typeINS_12basic_stringIcNS_11char_traitsIcEENS_9allocatorIcEEEEdEEPvED1B8ne180100Ev, symObjAddr: 0x30BF0, symBinAddr: 0x100034310, symSize: 0x50 }
  - { offset: 0x295DF, size: 0x8, addend: 0x0, symName: __ZNSt3__111__hash_nodeINS_17__hash_value_typeINS_12basic_stringIcNS_11char_traitsIcEENS_9allocatorIcEEEEdEEPvED2B8ne180100Ev, symObjAddr: 0x30C40, symBinAddr: 0x100034360, symSize: 0x50 }
  - { offset: 0x29609, size: 0x8, addend: 0x0, symName: __ZNSt3__19allocatorINS_11__hash_nodeINS_17__hash_value_typeINS_12basic_stringIcNS_11char_traitsIcEENS0_IcEEEEdEEPvEEE10deallocateB8ne180100EPSA_m, symObjAddr: 0x30C90, symBinAddr: 0x1000343B0, symSize: 0x70 }
  - { offset: 0x2964B, size: 0x8, addend: 0x0, symName: __ZNSt3__115__hash_iteratorIPNS_11__hash_nodeINS_17__hash_value_typeINS_12basic_stringIcNS_11char_traitsIcEENS_9allocatorIcEEEEdEEPvEEEC2B8ne180100EPNS_16__hash_node_baseISC_EE, symObjAddr: 0x30D00, symBinAddr: 0x100034420, symSize: 0x90 }
  - { offset: 0x29684, size: 0x8, addend: 0x0, symName: __ZNSt3__14pairINS_15__hash_iteratorIPNS_11__hash_nodeINS_17__hash_value_typeINS_12basic_stringIcNS_11char_traitsIcEENS_9allocatorIcEEEEdEEPvEEEEbEC2B8ne180100ISE_RbTnNS_9enable_ifIXclsr10_CheckArgsE17__enable_implicitIT_T0_EEEiE4typeELi0EEEOSJ_OSK_, symObjAddr: 0x30D90, symBinAddr: 0x1000344B0, symSize: 0x150 }
  - { offset: 0x296E2, size: 0x8, addend: 0x0, symName: __ZNSt3__14pairINS_19__hash_map_iteratorINS_15__hash_iteratorIPNS_11__hash_nodeINS_17__hash_value_typeINS_12basic_stringIcNS_11char_traitsIcEENS_9allocatorIcEEEEdEEPvEEEEEEbEC2B8ne180100ISF_bTnNS_9enable_ifIXclsr10_CheckArgsE17__enable_implicitIT_T0_EEEiE4typeELi0EEEONS0_ISK_SL_EE, symObjAddr: 0x30EE0, symBinAddr: 0x100034600, symSize: 0x160 }
  - { offset: 0x29732, size: 0x8, addend: 0x0, symName: __ZNSt3__119__hash_map_iteratorINS_15__hash_iteratorIPNS_11__hash_nodeINS_17__hash_value_typeINS_12basic_stringIcNS_11char_traitsIcEENS_9allocatorIcEEEEdEEPvEEEEEC1B8ne180100ESE_, symObjAddr: 0x31040, symBinAddr: 0x100034760, symSize: 0x60 }
  - { offset: 0x2976B, size: 0x8, addend: 0x0, symName: __ZNSt3__119__hash_map_iteratorINS_15__hash_iteratorIPNS_11__hash_nodeINS_17__hash_value_typeINS_12basic_stringIcNS_11char_traitsIcEENS_9allocatorIcEEEEdEEPvEEEEEC2B8ne180100ESE_, symObjAddr: 0x310A0, symBinAddr: 0x1000347C0, symSize: 0x60 }
  - { offset: 0x297A4, size: 0x8, addend: 0x0, symName: __ZNKSt3__16vectorINS_12basic_stringIcNS_11char_traitsIcEENS_9allocatorIcEEEENS4_IS6_EEE20__throw_out_of_rangeB8ne180100Ev, symObjAddr: 0x31100, symBinAddr: 0x100034820, symSize: 0x78 }
  - { offset: 0x297CA, size: 0x8, addend: 0x0, symName: __ZNSt12out_of_rangeC1B8ne180100EPKc, symObjAddr: 0x31220, symBinAddr: 0x100034940, symSize: 0x60 }
  - { offset: 0x29802, size: 0x8, addend: 0x0, symName: __ZNSt12out_of_rangeC2B8ne180100EPKc, symObjAddr: 0x31280, symBinAddr: 0x1000349A0, symSize: 0xD0 }
  - { offset: 0x2983A, size: 0x8, addend: 0x0, symName: __ZNKSt3__16vectorIiNS_9allocatorIiEEE20__throw_out_of_rangeB8ne180100Ev, symObjAddr: 0x31350, symBinAddr: 0x100034A70, symSize: 0x70 }
  - { offset: 0x29860, size: 0x8, addend: 0x0, symName: __ZNSt3__113unordered_mapINS_12basic_stringIcNS_11char_traitsIcEENS_9allocatorIcEEEEdNS_4hashIS6_EENS_8equal_toIS6_EENS4_INS_4pairIKS6_dEEEEED2B8ne180100Ev, symObjAddr: 0x313C0, symBinAddr: 0x100034AE0, symSize: 0x50 }
  - { offset: 0x2988A, size: 0x8, addend: 0x0, symName: __ZNSt3__112__hash_tableINS_17__hash_value_typeINS_12basic_stringIcNS_11char_traitsIcEENS_9allocatorIcEEEEdEENS_22__unordered_map_hasherIS7_S8_NS_4hashIS7_EENS_8equal_toIS7_EELb1EEENS_21__unordered_map_equalIS7_S8_SD_SB_Lb1EEENS5_IS8_EEED1Ev, symObjAddr: 0x31410, symBinAddr: 0x100034B30, symSize: 0x50 }
  - { offset: 0x298B6, size: 0x8, addend: 0x0, symName: __ZNSt3__112__hash_tableINS_17__hash_value_typeINS_12basic_stringIcNS_11char_traitsIcEENS_9allocatorIcEEEEdEENS_22__unordered_map_hasherIS7_S8_NS_4hashIS7_EENS_8equal_toIS7_EELb1EEENS_21__unordered_map_equalIS7_S8_SD_SB_Lb1EEENS5_IS8_EEED2Ev, symObjAddr: 0x31460, symBinAddr: 0x100034B80, symSize: 0x130 }
  - { offset: 0x298E2, size: 0x8, addend: 0x0, symName: __ZNSt3__112__hash_tableINS_17__hash_value_typeINS_12basic_stringIcNS_11char_traitsIcEENS_9allocatorIcEEEEdEENS_22__unordered_map_hasherIS7_S8_NS_4hashIS7_EENS_8equal_toIS7_EELb1EEENS_21__unordered_map_equalIS7_S8_SD_SB_Lb1EEENS5_IS8_EEE17__deallocate_nodeEPNS_16__hash_node_baseIPNS_11__hash_nodeIS8_PvEEEE, symObjAddr: 0x31590, symBinAddr: 0x100034CB0, symSize: 0x280 }
  - { offset: 0x2994C, size: 0x8, addend: 0x0, symName: __ZNSt3__110unique_ptrIA_PNS_16__hash_node_baseIPNS_11__hash_nodeINS_17__hash_value_typeINS_12basic_stringIcNS_11char_traitsIcEENS_9allocatorIcEEEEdEEPvEEEENS_25__bucket_list_deallocatorINS7_ISF_EEEEED1B8ne180100Ev, symObjAddr: 0x31810, symBinAddr: 0x100034F30, symSize: 0x50 }
  - { offset: 0x29976, size: 0x8, addend: 0x0, symName: __ZNSt3__110unique_ptrIA_PNS_16__hash_node_baseIPNS_11__hash_nodeINS_17__hash_value_typeINS_12basic_stringIcNS_11char_traitsIcEENS_9allocatorIcEEEEdEEPvEEEENS_25__bucket_list_deallocatorINS7_ISF_EEEEED2B8ne180100Ev, symObjAddr: 0x31860, symBinAddr: 0x100034F80, symSize: 0x60 }
  - { offset: 0x299A0, size: 0x8, addend: 0x0, symName: __ZNSt3__110unique_ptrIA_PNS_16__hash_node_baseIPNS_11__hash_nodeINS_17__hash_value_typeINS_12basic_stringIcNS_11char_traitsIcEENS_9allocatorIcEEEEdEEPvEEEENS_25__bucket_list_deallocatorINS7_ISF_EEEEE5resetB8ne180100EDn, symObjAddr: 0x318C0, symBinAddr: 0x100034FE0, symSize: 0x210 }
  - { offset: 0x299E0, size: 0x8, addend: 0x0, symName: __ZNSt3__123mersenne_twister_engineIjLm32ELm624ELm397ELm31ELj2567483615ELm11ELj4294967295ELm7ELj2636928640ELm15ELj4022730752ELm18ELj1812433253EE4seedEj, symObjAddr: 0x31AD0, symBinAddr: 0x1000351F0, symSize: 0x4C8 }
  - { offset: 0x29A33, size: 0x8, addend: 0x0, symName: __ZNSt3__123mersenne_twister_engineIjLm32ELm624ELm397ELm31ELj2567483615ELm11ELj4294967295ELm7ELj2636928640ELm15ELj4022730752ELm18ELj1812433253EE8__rshiftB8ne180100ILm30ETnNS_9enable_ifIXltT_L_ZNS1_3_DtEEEiE4typeELi0EEEjj, symObjAddr: 0x31F98, symBinAddr: 0x1000356B8, symSize: 0x50 }
  - { offset: 0x29A67, size: 0x8, addend: 0x0, symName: __ZNKSt3__112basic_stringIcNS_11char_traitsIcEENS_9allocatorIcEEEcvNS_17basic_string_viewIcS2_EEB8ne180100Ev, symObjAddr: 0x321F0, symBinAddr: 0x100035910, symSize: 0x1B0 }
  - { offset: 0x29A8E, size: 0x8, addend: 0x0, symName: __ZNSt3__117basic_string_viewIcNS_11char_traitsIcEEEC1B8ne180100EPKc, symObjAddr: 0x323A0, symBinAddr: 0x100035AC0, symSize: 0x60 }
  - { offset: 0x29AC7, size: 0x8, addend: 0x0, symName: __ZNKSt3__117basic_string_viewIcNS_11char_traitsIcEEE4sizeB8ne180100Ev, symObjAddr: 0x32400, symBinAddr: 0x100035B20, symSize: 0x80 }
  - { offset: 0x29AED, size: 0x8, addend: 0x0, symName: __ZNKSt3__117basic_string_viewIcNS_11char_traitsIcEEE7compareES3_, symObjAddr: 0x32480, symBinAddr: 0x100035BA0, symSize: 0x370 }
  - { offset: 0x29B47, size: 0x8, addend: 0x0, symName: __ZNKSt3__117basic_string_viewIcNS_11char_traitsIcEEE4dataB8ne180100Ev, symObjAddr: 0x327F0, symBinAddr: 0x100035F10, symSize: 0x80 }
  - { offset: 0x29B6D, size: 0x8, addend: 0x0, symName: __ZNSt3__117basic_string_viewIcNS_11char_traitsIcEEEC1B8ne180100EPKcm, symObjAddr: 0x32870, symBinAddr: 0x100035F90, symSize: 0x60 }
  - { offset: 0x29BB5, size: 0x8, addend: 0x0, symName: __ZNSt3__117basic_string_viewIcNS_11char_traitsIcEEEC2B8ne180100EPKcm, symObjAddr: 0x328D0, symBinAddr: 0x100035FF0, symSize: 0xD0 }
  - { offset: 0x29BFD, size: 0x8, addend: 0x0, symName: __ZNSt3__117basic_string_viewIcNS_11char_traitsIcEEEC2B8ne180100EPKc, symObjAddr: 0x329A0, symBinAddr: 0x1000360C0, symSize: 0xE8 }
  - { offset: 0x29C36, size: 0x8, addend: 0x0, symName: __ZN14QuadgramScorerD2Ev, symObjAddr: 0x32AB0, symBinAddr: 0x1000361D0, symSize: 0x50 }
  - { offset: 0x29C62, size: 0x8, addend: 0x0, symName: __ZNSt3__16vectorIiNS_9allocatorIiEEED2B8ne180100Ev, symObjAddr: 0x32B00, symBinAddr: 0x100036220, symSize: 0x1E0 }
  - { offset: 0x29C8D, size: 0x8, addend: 0x0, symName: __ZNSt3__16vectorIiNS_9allocatorIiEEE16__destroy_vectorC1B8ne180100ERS3_, symObjAddr: 0x32CE0, symBinAddr: 0x100036400, symSize: 0x60 }
  - { offset: 0x29CC6, size: 0x8, addend: 0x0, symName: __ZNSt3__16vectorIiNS_9allocatorIiEEE16__destroy_vectorclB8ne180100Ev, symObjAddr: 0x32D40, symBinAddr: 0x100036460, symSize: 0x350 }
  - { offset: 0x29CEC, size: 0x8, addend: 0x0, symName: __ZNSt3__16vectorIiNS_9allocatorIiEEE16__destroy_vectorC2B8ne180100ERS3_, symObjAddr: 0x33090, symBinAddr: 0x1000367B0, symSize: 0xC0 }
  - { offset: 0x29D25, size: 0x8, addend: 0x0, symName: __ZNSt3__16vectorIiNS_9allocatorIiEEE7__clearB8ne180100Ev, symObjAddr: 0x33150, symBinAddr: 0x100036870, symSize: 0x80 }
  - { offset: 0x29D4B, size: 0x8, addend: 0x0, symName: __ZNSt3__16vectorIiNS_9allocatorIiEEE22__base_destruct_at_endB8ne180100EPi, symObjAddr: 0x331D0, symBinAddr: 0x1000368F0, symSize: 0x190 }
  - { offset: 0x29D8F, size: 0x8, addend: 0x0, symName: __ZNSt3__16vectorINS_12basic_stringIcNS_11char_traitsIcEENS_9allocatorIcEEEENS4_IS6_EEED2B8ne180100Ev, symObjAddr: 0x33360, symBinAddr: 0x100036A80, symSize: 0x1E0 }
  - { offset: 0x29DBA, size: 0x8, addend: 0x0, symName: __ZNSt3__16vectorINS_12basic_stringIcNS_11char_traitsIcEENS_9allocatorIcEEEENS4_IS6_EEE16__destroy_vectorC1B8ne180100ERS8_, symObjAddr: 0x33540, symBinAddr: 0x100036C60, symSize: 0x60 }
  - { offset: 0x29DF3, size: 0x8, addend: 0x0, symName: __ZNSt3__16vectorINS_12basic_stringIcNS_11char_traitsIcEENS_9allocatorIcEEEENS4_IS6_EEE16__destroy_vectorclB8ne180100Ev, symObjAddr: 0x335A0, symBinAddr: 0x100036CC0, symSize: 0x350 }
  - { offset: 0x29E19, size: 0x8, addend: 0x0, symName: __ZNSt3__16vectorINS_12basic_stringIcNS_11char_traitsIcEENS_9allocatorIcEEEENS4_IS6_EEE16__destroy_vectorC2B8ne180100ERS8_, symObjAddr: 0x338F0, symBinAddr: 0x100037010, symSize: 0xC0 }
  - { offset: 0x29E52, size: 0x8, addend: 0x0, symName: __ZNSt3__16vectorINS_12basic_stringIcNS_11char_traitsIcEENS_9allocatorIcEEEENS4_IS6_EEE7__clearB8ne180100Ev, symObjAddr: 0x339B0, symBinAddr: 0x1000370D0, symSize: 0x80 }
  - { offset: 0x29E78, size: 0x8, addend: 0x0, symName: __ZNSt3__16vectorINS_12basic_stringIcNS_11char_traitsIcEENS_9allocatorIcEEEENS4_IS6_EEE22__base_destruct_at_endB8ne180100EPS6_, symObjAddr: 0x33A30, symBinAddr: 0x100037150, symSize: 0x190 }
  - { offset: 0x29EBC, size: 0x8, addend: 0x0, symName: __ZNSt3__114basic_ifstreamIcNS_11char_traitsIcEEED2Ev, symObjAddr: 0x33BC0, symBinAddr: 0x1000372E0, symSize: 0x190 }
  - { offset: 0x29EF6, size: 0x8, addend: 0x0, symName: __ZTv0_n24_NSt3__114basic_ifstreamIcNS_11char_traitsIcEEED1Ev, symObjAddr: 0x33D50, symBinAddr: 0x100037470, symSize: 0x90 }
  - { offset: 0x29F0D, size: 0x8, addend: 0x0, symName: __ZNKSt3__112basic_stringIcNS_11char_traitsIcEENS_9allocatorIcEEE21__make_const_iteratorB8ne180100EPKc, symObjAddr: 0x33DE0, symBinAddr: 0x100037500, symSize: 0x190 }
  - { offset: 0x29F44, size: 0x8, addend: 0x0, symName: __ZNSt3__111__wrap_iterIPKcEC1B8ne180100ES2_, symObjAddr: 0x33F70, symBinAddr: 0x100037690, symSize: 0x60 }
  - { offset: 0x29F7C, size: 0x8, addend: 0x0, symName: __ZNSt3__111__wrap_iterIPKcEC2B8ne180100ES2_, symObjAddr: 0x33FD0, symBinAddr: 0x1000376F0, symSize: 0x98 }
  - { offset: 0x29FB4, size: 0x8, addend: 0x0, symName: __ZNKSt3__111__wrap_iterIPKcE4baseB8ne180100Ev, symObjAddr: 0x34100, symBinAddr: 0x100037820, symSize: 0x88 }
  - { offset: 0x29FD9, size: 0x8, addend: 0x0, symName: __Z8__istypeim, symObjAddr: 0x34188, symBinAddr: 0x1000378A8, symSize: 0x180 }
  - { offset: 0x2A013, size: 0x8, addend: 0x0, symName: __Z7isasciii, symObjAddr: 0x34308, symBinAddr: 0x100037A28, symSize: 0x28 }
  - { offset: 0x2A040, size: 0x8, addend: 0x0, symName: __ZNSt3__16vectorINS_12basic_stringIcNS_11char_traitsIcEENS_9allocatorIcEEEENS4_IS6_EEE11__make_iterB8ne180100EPS6_, symObjAddr: 0x34330, symBinAddr: 0x100037A50, symSize: 0x190 }
  - { offset: 0x2A077, size: 0x8, addend: 0x0, symName: __ZNSt3__111__wrap_iterIPNS_12basic_stringIcNS_11char_traitsIcEENS_9allocatorIcEEEEEC1B8ne180100ES7_, symObjAddr: 0x344C0, symBinAddr: 0x100037BE0, symSize: 0x60 }
  - { offset: 0x2A0AF, size: 0x8, addend: 0x0, symName: __ZNSt3__111__wrap_iterIPNS_12basic_stringIcNS_11char_traitsIcEENS_9allocatorIcEEEEEC2B8ne180100ES7_, symObjAddr: 0x34520, symBinAddr: 0x100037C40, symSize: 0x98 }
  - { offset: 0x2A0E7, size: 0x8, addend: 0x0, symName: __ZNKSt3__111__wrap_iterIPNS_12basic_stringIcNS_11char_traitsIcEENS_9allocatorIcEEEEE4baseB8ne180100Ev, symObjAddr: 0x34650, symBinAddr: 0x100037D70, symSize: 0x80 }
  - { offset: 0x2A10D, size: 0x8, addend: 0x0, symName: __ZNSt3__112basic_stringIcNS_11char_traitsIcEENS_9allocatorIcEEE13__move_assignB8ne180100ERS5_NS_17integral_constantIbLb1EEE, symObjAddr: 0x346D0, symBinAddr: 0x100037DF0, symSize: 0x568 }
  - { offset: 0x2A170, size: 0x8, addend: 0x0, symName: __ZNSt3__116allocator_traitsINS_9allocatorIcEEE10deallocateB8ne180100ERS2_Pcm, symObjAddr: 0x34C38, symBinAddr: 0x100038358, symSize: 0x38 }
  - { offset: 0x2A1B2, size: 0x8, addend: 0x0, symName: __ZNSt3__112basic_stringIcNS_11char_traitsIcEENS_9allocatorIcEEE7__allocB8ne180100Ev, symObjAddr: 0x34C70, symBinAddr: 0x100038390, symSize: 0xB0 }
  - { offset: 0x2A1D8, size: 0x8, addend: 0x0, symName: __ZNSt3__112basic_stringIcNS_11char_traitsIcEENS_9allocatorIcEEE18__get_long_pointerB8ne180100Ev, symObjAddr: 0x34D20, symBinAddr: 0x100038440, symSize: 0x180 }
  - { offset: 0x2A1FE, size: 0x8, addend: 0x0, symName: __ZNKSt3__112basic_stringIcNS_11char_traitsIcEENS_9allocatorIcEEE14__get_long_capB8ne180100Ev, symObjAddr: 0x34EA0, symBinAddr: 0x1000385C0, symSize: 0x180 }
  - { offset: 0x2A224, size: 0x8, addend: 0x0, symName: __ZNSt3__112basic_stringIcNS_11char_traitsIcEENS_9allocatorIcEEE19__move_assign_allocB8ne180100ERS5_, symObjAddr: 0x35020, symBinAddr: 0x100038740, symSize: 0x90 }
  - { offset: 0x2A259, size: 0x8, addend: 0x0, symName: __ZNSt3__112basic_stringIcNS_11char_traitsIcEENS_9allocatorIcEEE16__set_short_sizeB8ne180100Em, symObjAddr: 0x350B0, symBinAddr: 0x1000387D0, symSize: 0x2F8 }
  - { offset: 0x2A28E, size: 0x8, addend: 0x0, symName: __ZNSt3__111char_traitsIcE6assignB8ne180100ERcRKc, symObjAddr: 0x353A8, symBinAddr: 0x100038AC8, symSize: 0xB8 }
  - { offset: 0x2A2BF, size: 0x8, addend: 0x0, symName: __ZNSt3__112basic_stringIcNS_11char_traitsIcEENS_9allocatorIcEEE19__get_short_pointerB8ne180100Ev, symObjAddr: 0x35460, symBinAddr: 0x100038B80, symSize: 0x150 }
  - { offset: 0x2A2E5, size: 0x8, addend: 0x0, symName: __ZNKSt3__112basic_stringIcNS_11char_traitsIcEENS_9allocatorIcEEE17__annotate_shrinkB8ne180100Em, symObjAddr: 0x355B0, symBinAddr: 0x100038CD0, symSize: 0x50 }
  - { offset: 0x2A31A, size: 0x8, addend: 0x0, symName: __ZNKSt3__112basic_stringIcNS_11char_traitsIcEENS_9allocatorIcEEE16__get_short_sizeB8ne180100Ev, symObjAddr: 0x35600, symBinAddr: 0x100038D20, symSize: 0x190 }
  - { offset: 0x2A340, size: 0x8, addend: 0x0, symName: __ZNSt3__19allocatorIcE10deallocateB8ne180100EPcm, symObjAddr: 0x35790, symBinAddr: 0x100038EB0, symSize: 0x70 }
  - { offset: 0x2A382, size: 0x8, addend: 0x0, symName: __ZNSt3__117__compressed_pairINS_12basic_stringIcNS_11char_traitsIcEENS_9allocatorIcEEE5__repES5_E6secondB8ne180100Ev, symObjAddr: 0x35800, symBinAddr: 0x100038F20, symSize: 0xC0 }
  - { offset: 0x2A3A8, size: 0x8, addend: 0x0, symName: __ZNSt3__122__compressed_pair_elemINS_9allocatorIcEELi1ELb1EE5__getB8ne180100Ev, symObjAddr: 0x358C0, symBinAddr: 0x100038FE0, symSize: 0x60 }
  - { offset: 0x2A3CE, size: 0x8, addend: 0x0, symName: __ZNSt3__112basic_stringIcNS_11char_traitsIcEENS_9allocatorIcEEE19__move_assign_allocB8ne180100ERS5_NS_17integral_constantIbLb1EEE, symObjAddr: 0x35920, symBinAddr: 0x100039040, symSize: 0x98 }
  - { offset: 0x2A40E, size: 0x8, addend: 0x0, symName: __ZNSt3__114pointer_traitsIPcE10pointer_toB8ne180100ERc, symObjAddr: 0x359B8, symBinAddr: 0x1000390D8, symSize: 0x18 }
  - { offset: 0x2A431, size: 0x8, addend: 0x0, symName: __ZNSt3__16vectorINS_12basic_stringIcNS_11char_traitsIcEENS_9allocatorIcEEEENS4_IS6_EEE22__construct_one_at_endB8ne180100IJS6_EEEvDpOT_, symObjAddr: 0x359D0, symBinAddr: 0x1000390F0, symSize: 0x3F0 }
  - { offset: 0x2A486, size: 0x8, addend: 0x0, symName: __ZNSt3__16vectorINS_12basic_stringIcNS_11char_traitsIcEENS_9allocatorIcEEEENS4_IS6_EEE21__push_back_slow_pathIS6_EEPS6_OT_, symObjAddr: 0x35DC0, symBinAddr: 0x1000394E0, symSize: 0x4E0 }
  - { offset: 0x2A4E9, size: 0x8, addend: 0x0, symName: __ZNSt3__119basic_istringstreamIcNS_11char_traitsIcEENS_9allocatorIcEEED2Ev, symObjAddr: 0x362A0, symBinAddr: 0x1000399C0, symSize: 0x190 }
  - { offset: 0x2A523, size: 0x8, addend: 0x0, symName: __ZTv0_n24_NSt3__119basic_istringstreamIcNS_11char_traitsIcEENS_9allocatorIcEEED1Ev, symObjAddr: 0x36430, symBinAddr: 0x100039B50, symSize: 0x90 }
  - { offset: 0x2A53A, size: 0x8, addend: 0x0, symName: __ZNSt3__119basic_ostringstreamIcNS_11char_traitsIcEENS_9allocatorIcEEED2Ev, symObjAddr: 0x364C0, symBinAddr: 0x100039BE0, symSize: 0x190 }
  - { offset: 0x2A574, size: 0x8, addend: 0x0, symName: __ZTv0_n24_NSt3__119basic_ostringstreamIcNS_11char_traitsIcEENS_9allocatorIcEEED1Ev, symObjAddr: 0x36650, symBinAddr: 0x100039D70, symSize: 0x90 }
  - { offset: 0x2A58B, size: 0x8, addend: 0x0, symName: __ZNKSt3__16vectorINS_12basic_stringIcNS_11char_traitsIcEENS_9allocatorIcEEEENS4_IS6_EEE11__make_iterB8ne180100EPKS6_, symObjAddr: 0x366E0, symBinAddr: 0x100039E00, symSize: 0x190 }
  - { offset: 0x2A5C2, size: 0x8, addend: 0x0, symName: __ZNSt3__111__wrap_iterIPKNS_12basic_stringIcNS_11char_traitsIcEENS_9allocatorIcEEEEEC1B8ne180100ES8_, symObjAddr: 0x36870, symBinAddr: 0x100039F90, symSize: 0x60 }
  - { offset: 0x2A5FA, size: 0x8, addend: 0x0, symName: __ZNSt3__111__wrap_iterIPKNS_12basic_stringIcNS_11char_traitsIcEENS_9allocatorIcEEEEEC2B8ne180100ES8_, symObjAddr: 0x368D0, symBinAddr: 0x100039FF0, symSize: 0x98 }
  - { offset: 0x2A632, size: 0x8, addend: 0x0, symName: __ZNKSt3__111__wrap_iterIPKNS_12basic_stringIcNS_11char_traitsIcEENS_9allocatorIcEEEEE4baseB8ne180100Ev, symObjAddr: 0x36A00, symBinAddr: 0x10003A120, symSize: 0x88 }
  - { offset: 0x2A658, size: 0x8, addend: 0x0, symName: __ZNSt3__118__unwrap_iter_implINS_11__wrap_iterIPKNS_12basic_stringIcNS_11char_traitsIcEENS_9allocatorIcEEEEEELb1EE8__rewrapB8ne180100ESA_S9_, symObjAddr: 0x36CB8, symBinAddr: 0x10003A3D8, symSize: 0x198 }
  - { offset: 0x2A68E, size: 0x8, addend: 0x0, symName: __ZNKSt3__111__wrap_iterIPKNS_12basic_stringIcNS_11char_traitsIcEENS_9allocatorIcEEEEEplB8ne180100El, symObjAddr: 0x36E50, symBinAddr: 0x10003A570, symSize: 0x1A8 }
  - { offset: 0x2A6D6, size: 0x8, addend: 0x0, symName: __ZNSt3__111__wrap_iterIPKNS_12basic_stringIcNS_11char_traitsIcEENS_9allocatorIcEEEEEpLB8ne180100El, symObjAddr: 0x37050, symBinAddr: 0x10003A770, symSize: 0x168 }
  - { offset: 0x2A716, size: 0x8, addend: 0x0, symName: __ZNSt3__119__to_address_helperINS_11__wrap_iterIPKNS_12basic_stringIcNS_11char_traitsIcEENS_9allocatorIcEEEEEEvE6__callB8ne180100ERKSA_, symObjAddr: 0x371B8, symBinAddr: 0x10003A8D8, symSize: 0x40 }
  - { offset: 0x2A739, size: 0x8, addend: 0x0, symName: __ZNSt3__114pointer_traitsINS_11__wrap_iterIPKNS_12basic_stringIcNS_11char_traitsIcEENS_9allocatorIcEEEEEEE10to_addressB8ne180100ESA_, symObjAddr: 0x371F8, symBinAddr: 0x10003A918, symSize: 0x150 }
  - { offset: 0x2A76A, size: 0x8, addend: 0x0, symName: __ZNKSt3__110__identityclB8ne180100IRKNS_12basic_stringIcNS_11char_traitsIcEENS_9allocatorIcEEEEEEOT_SB_, symObjAddr: 0x37420, symBinAddr: 0x10003AB40, symSize: 0x78 }
  - { offset: 0x2A7A7, size: 0x8, addend: 0x0, symName: __ZNSt3__118__unwrap_iter_implINS_11__wrap_iterIPKNS_12basic_stringIcNS_11char_traitsIcEENS_9allocatorIcEEEEEELb1EE8__unwrapB8ne180100ESA_, symObjAddr: 0x37498, symBinAddr: 0x10003ABB8, symSize: 0x148 }
  - { offset: 0x2A7CD, size: 0x8, addend: 0x0, symName: __ZNSt3__16vectorINS_4pairIiNS_12basic_stringIcNS_11char_traitsIcEENS_9allocatorIcEEEEEENS5_IS8_EEEC2B8ne180100Ev, symObjAddr: 0x375E0, symBinAddr: 0x10003AD00, symSize: 0x240 }
  - { offset: 0x2A7F8, size: 0x8, addend: 0x0, symName: __ZNSt3__117__compressed_pairIPNS_4pairIiNS_12basic_stringIcNS_11char_traitsIcEENS_9allocatorIcEEEEEENS5_IS8_EEEC1B8ne180100IDnNS_18__default_init_tagEEEOT_OT0_, symObjAddr: 0x37820, symBinAddr: 0x10003AF40, symSize: 0x60 }
  - { offset: 0x2A850, size: 0x8, addend: 0x0, symName: __ZNSt3__117__compressed_pairIPNS_4pairIiNS_12basic_stringIcNS_11char_traitsIcEENS_9allocatorIcEEEEEENS5_IS8_EEEC2B8ne180100IDnNS_18__default_init_tagEEEOT_OT0_, symObjAddr: 0x37880, symBinAddr: 0x10003AFA0, symSize: 0xF0 }
  - { offset: 0x2A8A8, size: 0x8, addend: 0x0, symName: __ZNSt3__122__compressed_pair_elemIPNS_4pairIiNS_12basic_stringIcNS_11char_traitsIcEENS_9allocatorIcEEEEEELi0ELb0EEC2B8ne180100IDnvEEOT_, symObjAddr: 0x37970, symBinAddr: 0x10003B090, symSize: 0x80 }
  - { offset: 0x2A8EA, size: 0x8, addend: 0x0, symName: __ZNSt3__122__compressed_pair_elemINS_9allocatorINS_4pairIiNS_12basic_stringIcNS_11char_traitsIcEENS1_IcEEEEEEEELi1ELb1EEC2B8ne180100ENS_18__default_init_tagE, symObjAddr: 0x379F0, symBinAddr: 0x10003B110, symSize: 0x60 }
  - { offset: 0x2A91E, size: 0x8, addend: 0x0, symName: __ZNSt3__19allocatorINS_4pairIiNS_12basic_stringIcNS_11char_traitsIcEENS0_IcEEEEEEEC2B8ne180100Ev, symObjAddr: 0x37A50, symBinAddr: 0x10003B170, symSize: 0x60 }
  - { offset: 0x2A948, size: 0x8, addend: 0x0, symName: __ZNSt3__116__non_trivial_ifILb1ENS_9allocatorINS_4pairIiNS_12basic_stringIcNS_11char_traitsIcEENS1_IcEEEEEEEEEC2B8ne180100Ev, symObjAddr: 0x37AB0, symBinAddr: 0x10003B1D0, symSize: 0x40 }
  - { offset: 0x2A972, size: 0x8, addend: 0x0, symName: __ZNSt3__16vectorINS_12basic_stringIcNS_11char_traitsIcEENS_9allocatorIcEEEENS4_IS6_EEEC2ERKS8_, symObjAddr: 0x37AF0, symBinAddr: 0x10003B210, symSize: 0x3E8 }
  - { offset: 0x2A9AF, size: 0x8, addend: 0x0, symName: __ZNSt3__116allocator_traitsINS_9allocatorINS_12basic_stringIcNS_11char_traitsIcEENS1_IcEEEEEEE37select_on_container_copy_constructionB8ne180100IS7_vvEES7_RKS7_, symObjAddr: 0x37ED8, symBinAddr: 0x10003B5F8, symSize: 0x18 }
  - { offset: 0x2A9E4, size: 0x8, addend: 0x0, symName: __ZNSt3__117__compressed_pairIPNS_12basic_stringIcNS_11char_traitsIcEENS_9allocatorIcEEEENS4_IS6_EEEC1B8ne180100IDnS8_EEOT_OT0_, symObjAddr: 0x37EF0, symBinAddr: 0x10003B610, symSize: 0x60 }
  - { offset: 0x2AA3C, size: 0x8, addend: 0x0, symName: __ZNSt3__16vectorINS_12basic_stringIcNS_11char_traitsIcEENS_9allocatorIcEEEENS4_IS6_EEE16__init_with_sizeB8ne180100IPS6_SA_EEvT_T0_m, symObjAddr: 0x37F50, symBinAddr: 0x10003B670, symSize: 0x300 }
  - { offset: 0x2AAB8, size: 0x8, addend: 0x0, symName: __ZNSt3__117__compressed_pairIPNS_12basic_stringIcNS_11char_traitsIcEENS_9allocatorIcEEEENS4_IS6_EEEC2B8ne180100IDnS8_EEOT_OT0_, symObjAddr: 0x38250, symBinAddr: 0x10003B970, symSize: 0x110 }
  - { offset: 0x2AB10, size: 0x8, addend: 0x0, symName: __ZNSt3__122__compressed_pair_elemINS_9allocatorINS_12basic_stringIcNS_11char_traitsIcEENS1_IcEEEEEELi1ELb1EEC2B8ne180100IS7_vEEOT_, symObjAddr: 0x38360, symBinAddr: 0x10003BA80, symSize: 0x48 }
  - { offset: 0x2AB52, size: 0x8, addend: 0x0, symName: __ZNSt3__16vectorINS_12basic_stringIcNS_11char_traitsIcEENS_9allocatorIcEEEENS4_IS6_EEE11__vallocateB8ne180100Em, symObjAddr: 0x38420, symBinAddr: 0x10003BB40, symSize: 0x430 }
  - { offset: 0x2AB9C, size: 0x8, addend: 0x0, symName: __ZNSt3__16vectorINS_12basic_stringIcNS_11char_traitsIcEENS_9allocatorIcEEEENS4_IS6_EEE18__construct_at_endIPS6_SA_EEvT_T0_m, symObjAddr: 0x38850, symBinAddr: 0x10003BF70, symSize: 0x390 }
  - { offset: 0x2AC18, size: 0x8, addend: 0x0, symName: __ZNSt3__128__exception_guard_exceptionsINS_6vectorINS_12basic_stringIcNS_11char_traitsIcEENS_9allocatorIcEEEENS5_IS7_EEE16__destroy_vectorEE10__completeB8ne180100Ev, symObjAddr: 0x38BE0, symBinAddr: 0x10003C300, symSize: 0xA0 }
  - { offset: 0x2AC3E, size: 0x8, addend: 0x0, symName: __ZNSt3__128__exception_guard_exceptionsINS_6vectorINS_12basic_stringIcNS_11char_traitsIcEENS_9allocatorIcEEEENS5_IS7_EEE16__destroy_vectorEED1B8ne180100Ev, symObjAddr: 0x38C80, symBinAddr: 0x10003C3A0, symSize: 0x50 }
  - { offset: 0x2AC68, size: 0x8, addend: 0x0, symName: __ZNSt3__128__exception_guard_exceptionsINS_6vectorINS_12basic_stringIcNS_11char_traitsIcEENS_9allocatorIcEEEENS5_IS7_EEE16__destroy_vectorEEC1B8ne180100ESA_, symObjAddr: 0x38CD0, symBinAddr: 0x10003C3F0, symSize: 0x60 }
  - { offset: 0x2ACA0, size: 0x8, addend: 0x0, symName: __ZNSt3__128__exception_guard_exceptionsINS_6vectorINS_12basic_stringIcNS_11char_traitsIcEENS_9allocatorIcEEEENS5_IS7_EEE16__destroy_vectorEEC2B8ne180100ESA_, symObjAddr: 0x38D30, symBinAddr: 0x10003C450, symSize: 0xB8 }
  - { offset: 0x2ACF5, size: 0x8, addend: 0x0, symName: __ZNSt3__119__unwrap_range_implIPNS_12basic_stringIcNS_11char_traitsIcEENS_9allocatorIcEEEES7_E8__unwrapB8ne180100ES7_S7_, symObjAddr: 0x395F8, symBinAddr: 0x10003CD18, symSize: 0x1E8 }
  - { offset: 0x2AD2E, size: 0x8, addend: 0x0, symName: __ZNSt3__14pairIPNS_12basic_stringIcNS_11char_traitsIcEENS_9allocatorIcEEEES7_EC1B8ne180100IS7_S7_TnNS_9enable_ifIXclsr10_CheckArgsE17__enable_implicitIT_T0_EEEiE4typeELi0EEEOSB_OSC_, symObjAddr: 0x397E0, symBinAddr: 0x10003CF00, symSize: 0x60 }
  - { offset: 0x2AD8C, size: 0x8, addend: 0x0, symName: __ZNSt3__14pairIPNS_12basic_stringIcNS_11char_traitsIcEENS_9allocatorIcEEEES7_EC2B8ne180100IS7_S7_TnNS_9enable_ifIXclsr10_CheckArgsE17__enable_implicitIT_T0_EEEiE4typeELi0EEEOSB_OSC_, symObjAddr: 0x39840, symBinAddr: 0x10003CF60, symSize: 0x198 }
  - { offset: 0x2ADEA, size: 0x8, addend: 0x0, symName: __ZNSt3__129_AllocatorDestroyRangeReverseINS_9allocatorINS_12basic_stringIcNS_11char_traitsIcEENS1_IcEEEEEEPS6_EC1B8ne180100ERS7_RS8_SB_, symObjAddr: 0x39BD0, symBinAddr: 0x10003D2F0, symSize: 0x78 }
  - { offset: 0x2AE41, size: 0x8, addend: 0x0, symName: __ZNSt3__116allocator_traitsINS_9allocatorINS_12basic_stringIcNS_11char_traitsIcEENS1_IcEEEEEEE9constructB8ne180100IS6_JRS6_EvvEEvRS7_PT_DpOT0_, symObjAddr: 0x39C48, symBinAddr: 0x10003D368, symSize: 0x68 }
  - { offset: 0x2AE95, size: 0x8, addend: 0x0, symName: __ZNSt3__128__exception_guard_exceptionsINS_29_AllocatorDestroyRangeReverseINS_9allocatorINS_12basic_stringIcNS_11char_traitsIcEENS2_IcEEEEEEPS7_EEE10__completeB8ne180100Ev, symObjAddr: 0x39CB0, symBinAddr: 0x10003D3D0, symSize: 0xA0 }
  - { offset: 0x2AEBB, size: 0x8, addend: 0x0, symName: __ZNSt3__128__exception_guard_exceptionsINS_29_AllocatorDestroyRangeReverseINS_9allocatorINS_12basic_stringIcNS_11char_traitsIcEENS2_IcEEEEEEPS7_EEED1B8ne180100Ev, symObjAddr: 0x39D50, symBinAddr: 0x10003D470, symSize: 0x50 }
  - { offset: 0x2AEE5, size: 0x8, addend: 0x0, symName: __ZNSt3__128__exception_guard_exceptionsINS_29_AllocatorDestroyRangeReverseINS_9allocatorINS_12basic_stringIcNS_11char_traitsIcEENS2_IcEEEEEEPS7_EEEC1B8ne180100ESA_, symObjAddr: 0x39DA0, symBinAddr: 0x10003D4C0, symSize: 0x280 }
  - { offset: 0x2AF22, size: 0x8, addend: 0x0, symName: __ZNSt3__128__exception_guard_exceptionsINS_29_AllocatorDestroyRangeReverseINS_9allocatorINS_12basic_stringIcNS_11char_traitsIcEENS2_IcEEEEEEPS7_EEEC2B8ne180100ESA_, symObjAddr: 0x3A020, symBinAddr: 0x10003D740, symSize: 0x220 }
  - { offset: 0x2AF5F, size: 0x8, addend: 0x0, symName: __ZNSt3__129_AllocatorDestroyRangeReverseINS_9allocatorINS_12basic_stringIcNS_11char_traitsIcEENS1_IcEEEEEEPS6_EC2B8ne180100ERS7_RS8_SB_, symObjAddr: 0x3A240, symBinAddr: 0x10003D960, symSize: 0x198 }
  - { offset: 0x2AFB6, size: 0x8, addend: 0x0, symName: __ZNSt3__128__exception_guard_exceptionsINS_29_AllocatorDestroyRangeReverseINS_9allocatorINS_12basic_stringIcNS_11char_traitsIcEENS2_IcEEEEEEPS7_EEED2B8ne180100Ev, symObjAddr: 0x3A520, symBinAddr: 0x10003DC40, symSize: 0x120 }
  - { offset: 0x2AFE0, size: 0x8, addend: 0x0, symName: __ZNKSt3__129_AllocatorDestroyRangeReverseINS_9allocatorINS_12basic_stringIcNS_11char_traitsIcEENS1_IcEEEEEEPS6_EclB8ne180100Ev, symObjAddr: 0x3A640, symBinAddr: 0x10003DD60, symSize: 0x2E8 }
  - { offset: 0x2B007, size: 0x8, addend: 0x0, symName: __ZNSt3__118__unwrap_iter_implIPNS_12basic_stringIcNS_11char_traitsIcEENS_9allocatorIcEEEELb1EE8__unwrapB8ne180100ES7_, symObjAddr: 0x3AB28, symBinAddr: 0x10003E248, symSize: 0x30 }
  - { offset: 0x2B02A, size: 0x8, addend: 0x0, symName: __ZNSt3__118__unwrap_iter_implIPNS_12basic_stringIcNS_11char_traitsIcEENS_9allocatorIcEEEELb1EE8__rewrapB8ne180100ES7_S7_, symObjAddr: 0x3AB58, symBinAddr: 0x10003E278, symSize: 0xB8 }
  - { offset: 0x2B05B, size: 0x8, addend: 0x0, symName: __ZNSt3__128__exception_guard_exceptionsINS_6vectorINS_12basic_stringIcNS_11char_traitsIcEENS_9allocatorIcEEEENS5_IS7_EEE16__destroy_vectorEED2B8ne180100Ev, symObjAddr: 0x3AC10, symBinAddr: 0x10003E330, symSize: 0x100 }
  - { offset: 0x2B085, size: 0x8, addend: 0x0, symName: __ZNSt3__16vectorINS_4pairIiNS_12basic_stringIcNS_11char_traitsIcEENS_9allocatorIcEEEEEENS5_IS8_EEE9__end_capB8ne180100Ev, symObjAddr: 0x3AD10, symBinAddr: 0x10003E430, symSize: 0xC0 }
  - { offset: 0x2B0AB, size: 0x8, addend: 0x0, symName: __ZNSt3__16vectorINS_4pairIiNS_12basic_stringIcNS_11char_traitsIcEENS_9allocatorIcEEEEEENS5_IS8_EEE22__construct_one_at_endB8ne180100IJS8_EEEvDpOT_, symObjAddr: 0x3ADD0, symBinAddr: 0x10003E4F0, symSize: 0x3F0 }
  - { offset: 0x2B100, size: 0x8, addend: 0x0, symName: __ZNSt3__16vectorINS_4pairIiNS_12basic_stringIcNS_11char_traitsIcEENS_9allocatorIcEEEEEENS5_IS8_EEE21__push_back_slow_pathIS8_EEPS8_OT_, symObjAddr: 0x3B1C0, symBinAddr: 0x10003E8E0, symSize: 0x4E0 }
  - { offset: 0x2B163, size: 0x8, addend: 0x0, symName: __ZNSt3__117__compressed_pairIPNS_4pairIiNS_12basic_stringIcNS_11char_traitsIcEENS_9allocatorIcEEEEEENS5_IS8_EEE5firstB8ne180100Ev, symObjAddr: 0x3B6A0, symBinAddr: 0x10003EDC0, symSize: 0xE0 }
  - { offset: 0x2B189, size: 0x8, addend: 0x0, symName: __ZNSt3__122__compressed_pair_elemIPNS_4pairIiNS_12basic_stringIcNS_11char_traitsIcEENS_9allocatorIcEEEEEELi0ELb0EE5__getB8ne180100Ev, symObjAddr: 0x3B780, symBinAddr: 0x10003EEA0, symSize: 0x80 }
  - { offset: 0x2B1CB, size: 0x8, addend: 0x0, symName: __ZNSt3__16vectorINS_4pairIiNS_12basic_stringIcNS_11char_traitsIcEENS_9allocatorIcEEEEEENS5_IS8_EEE21_ConstructTransactionC1B8ne180100ERSA_m, symObjAddr: 0x3B800, symBinAddr: 0x10003EF20, symSize: 0x68 }
  - { offset: 0x2B213, size: 0x8, addend: 0x0, symName: __ZNSt3__116allocator_traitsINS_9allocatorINS_4pairIiNS_12basic_stringIcNS_11char_traitsIcEENS1_IcEEEEEEEEE9constructB8ne180100IS8_JS8_EvvEEvRS9_PT_DpOT0_, symObjAddr: 0x3B868, symBinAddr: 0x10003EF88, symSize: 0x68 }
  - { offset: 0x2B267, size: 0x8, addend: 0x0, symName: __ZNSt3__16vectorINS_4pairIiNS_12basic_stringIcNS_11char_traitsIcEENS_9allocatorIcEEEEEENS5_IS8_EEE7__allocB8ne180100Ev, symObjAddr: 0x3B8D0, symBinAddr: 0x10003EFF0, symSize: 0xB8 }
  - { offset: 0x2B28D, size: 0x8, addend: 0x0, symName: __ZNSt3__16vectorINS_4pairIiNS_12basic_stringIcNS_11char_traitsIcEENS_9allocatorIcEEEEEENS5_IS8_EEE21_ConstructTransactionD1B8ne180100Ev, symObjAddr: 0x3B9A0, symBinAddr: 0x10003F0C0, symSize: 0x50 }
  - { offset: 0x2B2B7, size: 0x8, addend: 0x0, symName: __ZNSt3__16vectorINS_4pairIiNS_12basic_stringIcNS_11char_traitsIcEENS_9allocatorIcEEEEEENS5_IS8_EEE21_ConstructTransactionC2B8ne180100ERSA_m, symObjAddr: 0x3B9F0, symBinAddr: 0x10003F110, symSize: 0x2C0 }
  - { offset: 0x2B2FF, size: 0x8, addend: 0x0, symName: __ZNKSt3__16vectorINS_4pairIiNS_12basic_stringIcNS_11char_traitsIcEENS_9allocatorIcEEEEEENS5_IS8_EEE19__annotate_increaseB8ne180100Em, symObjAddr: 0x3BCB0, symBinAddr: 0x10003F3D0, symSize: 0x1D0 }
  - { offset: 0x2B334, size: 0x8, addend: 0x0, symName: __ZNKSt3__16vectorINS_4pairIiNS_12basic_stringIcNS_11char_traitsIcEENS_9allocatorIcEEEEEENS5_IS8_EEE31__annotate_contiguous_containerB8ne180100EPKvSC_, symObjAddr: 0x3BE80, symBinAddr: 0x10003F5A0, symSize: 0x100 }
  - { offset: 0x2B396, size: 0x8, addend: 0x0, symName: __ZNKSt3__16vectorINS_4pairIiNS_12basic_stringIcNS_11char_traitsIcEENS_9allocatorIcEEEEEENS5_IS8_EEE4dataB8ne180100Ev, symObjAddr: 0x3BF80, symBinAddr: 0x10003F6A0, symSize: 0x80 }
  - { offset: 0x2B3BC, size: 0x8, addend: 0x0, symName: __ZNKSt3__16vectorINS_4pairIiNS_12basic_stringIcNS_11char_traitsIcEENS_9allocatorIcEEEEEENS5_IS8_EEE4sizeB8ne180100Ev, symObjAddr: 0x3C000, symBinAddr: 0x10003F720, symSize: 0xC0 }
  - { offset: 0x2B3E2, size: 0x8, addend: 0x0, symName: __ZNKSt3__16vectorINS_4pairIiNS_12basic_stringIcNS_11char_traitsIcEENS_9allocatorIcEEEEEENS5_IS8_EEE8capacityB8ne180100Ev, symObjAddr: 0x3C0C0, symBinAddr: 0x10003F7E0, symSize: 0x100 }
  - { offset: 0x2B408, size: 0x8, addend: 0x0, symName: __ZNKSt3__16vectorINS_4pairIiNS_12basic_stringIcNS_11char_traitsIcEENS_9allocatorIcEEEEEENS5_IS8_EEE9__end_capB8ne180100Ev, symObjAddr: 0x3C1C0, symBinAddr: 0x10003F8E0, symSize: 0xC0 }
  - { offset: 0x2B42E, size: 0x8, addend: 0x0, symName: __ZNKSt3__117__compressed_pairIPNS_4pairIiNS_12basic_stringIcNS_11char_traitsIcEENS_9allocatorIcEEEEEENS5_IS8_EEE5firstB8ne180100Ev, symObjAddr: 0x3C280, symBinAddr: 0x10003F9A0, symSize: 0xE0 }
  - { offset: 0x2B454, size: 0x8, addend: 0x0, symName: __ZNKSt3__122__compressed_pair_elemIPNS_4pairIiNS_12basic_stringIcNS_11char_traitsIcEENS_9allocatorIcEEEEEELi0ELb0EE5__getB8ne180100Ev, symObjAddr: 0x3C360, symBinAddr: 0x10003FA80, symSize: 0x88 }
  - { offset: 0x2B47A, size: 0x8, addend: 0x0, symName: __ZNSt3__14pairIiNS_12basic_stringIcNS_11char_traitsIcEENS_9allocatorIcEEEEEC1B8ne180100EOS7_, symObjAddr: 0x3C530, symBinAddr: 0x10003FC50, symSize: 0x60 }
  - { offset: 0x2B4AE, size: 0x8, addend: 0x0, symName: __ZNSt3__14pairIiNS_12basic_stringIcNS_11char_traitsIcEENS_9allocatorIcEEEEEC2B8ne180100EOS7_, symObjAddr: 0x3C590, symBinAddr: 0x10003FCB0, symSize: 0x1D0 }
  - { offset: 0x2B4E2, size: 0x8, addend: 0x0, symName: __ZNSt3__117__compressed_pairIPNS_4pairIiNS_12basic_stringIcNS_11char_traitsIcEENS_9allocatorIcEEEEEENS5_IS8_EEE6secondB8ne180100Ev, symObjAddr: 0x3C760, symBinAddr: 0x10003FE80, symSize: 0xC0 }
  - { offset: 0x2B508, size: 0x8, addend: 0x0, symName: __ZNSt3__122__compressed_pair_elemINS_9allocatorINS_4pairIiNS_12basic_stringIcNS_11char_traitsIcEENS1_IcEEEEEEEELi1ELb1EE5__getB8ne180100Ev, symObjAddr: 0x3C820, symBinAddr: 0x10003FF40, symSize: 0x60 }
  - { offset: 0x2B52E, size: 0x8, addend: 0x0, symName: __ZNSt3__16vectorINS_4pairIiNS_12basic_stringIcNS_11char_traitsIcEENS_9allocatorIcEEEEEENS5_IS8_EEE21_ConstructTransactionD2B8ne180100Ev, symObjAddr: 0x3C880, symBinAddr: 0x10003FFA0, symSize: 0x2E0 }
  - { offset: 0x2B558, size: 0x8, addend: 0x0, symName: __ZNKSt3__16vectorINS_4pairIiNS_12basic_stringIcNS_11char_traitsIcEENS_9allocatorIcEEEEEENS5_IS8_EEE17__annotate_shrinkB8ne180100Em, symObjAddr: 0x3CB60, symBinAddr: 0x100040280, symSize: 0x160 }
  - { offset: 0x2B58D, size: 0x8, addend: 0x0, symName: __ZNKSt3__16vectorINS_4pairIiNS_12basic_stringIcNS_11char_traitsIcEENS_9allocatorIcEEEEEENS5_IS8_EEE11__recommendB8ne180100Em, symObjAddr: 0x3CCC0, symBinAddr: 0x1000403E0, symSize: 0x310 }
  - { offset: 0x2B5E7, size: 0x8, addend: 0x0, symName: __ZNSt3__114__split_bufferINS_4pairIiNS_12basic_stringIcNS_11char_traitsIcEENS_9allocatorIcEEEEEERNS5_IS8_EEEC1EmmSA_, symObjAddr: 0x3CFD0, symBinAddr: 0x1000406F0, symSize: 0x70 }
  - { offset: 0x2B63B, size: 0x8, addend: 0x0, symName: __ZNSt3__114__split_bufferINS_4pairIiNS_12basic_stringIcNS_11char_traitsIcEENS_9allocatorIcEEEEEERNS5_IS8_EEED1Ev, symObjAddr: 0x3D700, symBinAddr: 0x100040E20, symSize: 0x50 }
  - { offset: 0x2B665, size: 0x8, addend: 0x0, symName: __ZNKSt3__16vectorINS_4pairIiNS_12basic_stringIcNS_11char_traitsIcEENS_9allocatorIcEEEEEENS5_IS8_EEE8max_sizeEv, symObjAddr: 0x3D750, symBinAddr: 0x100040E70, symSize: 0x280 }
  - { offset: 0x2B68C, size: 0x8, addend: 0x0, symName: __ZNKSt3__16vectorINS_4pairIiNS_12basic_stringIcNS_11char_traitsIcEENS_9allocatorIcEEEEEENS5_IS8_EEE20__throw_length_errorB8ne180100Ev, symObjAddr: 0x3D9D0, symBinAddr: 0x1000410F0, symSize: 0x78 }
  - { offset: 0x2B6BD, size: 0x8, addend: 0x0, symName: __ZNSt3__116allocator_traitsINS_9allocatorINS_4pairIiNS_12basic_stringIcNS_11char_traitsIcEENS1_IcEEEEEEEEE8max_sizeB8ne180100IS9_vvEEmRKS9_, symObjAddr: 0x3DA48, symBinAddr: 0x100041168, symSize: 0x48 }
  - { offset: 0x2B6E8, size: 0x8, addend: 0x0, symName: __ZNKSt3__16vectorINS_4pairIiNS_12basic_stringIcNS_11char_traitsIcEENS_9allocatorIcEEEEEENS5_IS8_EEE7__allocB8ne180100Ev, symObjAddr: 0x3DA90, symBinAddr: 0x1000411B0, symSize: 0xB0 }
  - { offset: 0x2B70E, size: 0x8, addend: 0x0, symName: __ZNKSt3__117__compressed_pairIPNS_4pairIiNS_12basic_stringIcNS_11char_traitsIcEENS_9allocatorIcEEEEEENS5_IS8_EEE6secondB8ne180100Ev, symObjAddr: 0x3DB40, symBinAddr: 0x100041260, symSize: 0xC0 }
  - { offset: 0x2B734, size: 0x8, addend: 0x0, symName: __ZNKSt3__122__compressed_pair_elemINS_9allocatorINS_4pairIiNS_12basic_stringIcNS_11char_traitsIcEENS1_IcEEEEEEEELi1ELb1EE5__getB8ne180100Ev, symObjAddr: 0x3DC00, symBinAddr: 0x100041320, symSize: 0x60 }
  - { offset: 0x2B75A, size: 0x8, addend: 0x0, symName: __ZNSt3__114__split_bufferINS_4pairIiNS_12basic_stringIcNS_11char_traitsIcEENS_9allocatorIcEEEEEERNS5_IS8_EEEC2EmmSA_, symObjAddr: 0x3DC60, symBinAddr: 0x100041380, symSize: 0x5B0 }
  - { offset: 0x2B7D3, size: 0x8, addend: 0x0, symName: __ZNSt3__117__compressed_pairIPNS_4pairIiNS_12basic_stringIcNS_11char_traitsIcEENS_9allocatorIcEEEEEERNS5_IS8_EEEC1B8ne180100IDnSB_EEOT_OT0_, symObjAddr: 0x3E210, symBinAddr: 0x100041930, symSize: 0x68 }
  - { offset: 0x2B82B, size: 0x8, addend: 0x0, symName: __ZNSt3__114__split_bufferINS_4pairIiNS_12basic_stringIcNS_11char_traitsIcEENS_9allocatorIcEEEEEERNS5_IS8_EEE7__allocB8ne180100Ev, symObjAddr: 0x3E2B0, symBinAddr: 0x1000419D0, symSize: 0xB0 }
  - { offset: 0x2B851, size: 0x8, addend: 0x0, symName: __ZNSt3__114__split_bufferINS_4pairIiNS_12basic_stringIcNS_11char_traitsIcEENS_9allocatorIcEEEEEERNS5_IS8_EEE9__end_capB8ne180100Ev, symObjAddr: 0x3E360, symBinAddr: 0x100041A80, symSize: 0xC0 }
  - { offset: 0x2B877, size: 0x8, addend: 0x0, symName: __ZNSt3__117__compressed_pairIPNS_4pairIiNS_12basic_stringIcNS_11char_traitsIcEENS_9allocatorIcEEEEEERNS5_IS8_EEEC2B8ne180100IDnSB_EEOT_OT0_, symObjAddr: 0x3E420, symBinAddr: 0x100041B40, symSize: 0x130 }
  - { offset: 0x2B8CF, size: 0x8, addend: 0x0, symName: __ZNSt3__122__compressed_pair_elemIRNS_9allocatorINS_4pairIiNS_12basic_stringIcNS_11char_traitsIcEENS1_IcEEEEEEEELi1ELb0EEC2B8ne180100ISA_vEEOT_, symObjAddr: 0x3E550, symBinAddr: 0x100041C70, symSize: 0xA0 }
  - { offset: 0x2B911, size: 0x8, addend: 0x0, symName: __ZNSt3__19allocatorINS_4pairIiNS_12basic_stringIcNS_11char_traitsIcEENS0_IcEEEEEEE8allocateB8ne180100Em, symObjAddr: 0x3E5F0, symBinAddr: 0x100041D10, symSize: 0xB0 }
  - { offset: 0x2B945, size: 0x8, addend: 0x0, symName: __ZNSt3__117__compressed_pairIPNS_4pairIiNS_12basic_stringIcNS_11char_traitsIcEENS_9allocatorIcEEEEEERNS5_IS8_EEE6secondB8ne180100Ev, symObjAddr: 0x3E6A0, symBinAddr: 0x100041DC0, symSize: 0xD0 }
  - { offset: 0x2B96B, size: 0x8, addend: 0x0, symName: __ZNSt3__122__compressed_pair_elemIRNS_9allocatorINS_4pairIiNS_12basic_stringIcNS_11char_traitsIcEENS1_IcEEEEEEEELi1ELb0EE5__getB8ne180100Ev, symObjAddr: 0x3E770, symBinAddr: 0x100041E90, symSize: 0xA0 }
  - { offset: 0x2B991, size: 0x8, addend: 0x0, symName: __ZNSt3__117__compressed_pairIPNS_4pairIiNS_12basic_stringIcNS_11char_traitsIcEENS_9allocatorIcEEEEEERNS5_IS8_EEE5firstB8ne180100Ev, symObjAddr: 0x3E810, symBinAddr: 0x100041F30, symSize: 0xE0 }
  - { offset: 0x2B9B7, size: 0x8, addend: 0x0, symName: __ZNKSt3__16vectorINS_4pairIiNS_12basic_stringIcNS_11char_traitsIcEENS_9allocatorIcEEEEEENS5_IS8_EEE17__annotate_deleteB8ne180100Ev, symObjAddr: 0x3E8F0, symBinAddr: 0x100042010, symSize: 0x168 }
  - { offset: 0x2B9DD, size: 0x8, addend: 0x0, symName: __ZNSt3__116reverse_iteratorIPNS_4pairIiNS_12basic_stringIcNS_11char_traitsIcEENS_9allocatorIcEEEEEEEC1B8ne180100ES9_, symObjAddr: 0x3EFD0, symBinAddr: 0x1000426F0, symSize: 0x60 }
  - { offset: 0x2BA15, size: 0x8, addend: 0x0, symName: __ZNKSt3__116reverse_iteratorIPNS_4pairIiNS_12basic_stringIcNS_11char_traitsIcEENS_9allocatorIcEEEEEEE4baseB8ne180100Ev, symObjAddr: 0x3F030, symBinAddr: 0x100042750, symSize: 0x88 }
  - { offset: 0x2BA3B, size: 0x8, addend: 0x0, symName: __ZNKSt3__16vectorINS_4pairIiNS_12basic_stringIcNS_11char_traitsIcEENS_9allocatorIcEEEEEENS5_IS8_EEE14__annotate_newB8ne180100Em, symObjAddr: 0x3F220, symBinAddr: 0x100042940, symSize: 0x168 }
  - { offset: 0x2BA70, size: 0x8, addend: 0x0, symName: __ZNSt3__129_AllocatorDestroyRangeReverseINS_9allocatorINS_4pairIiNS_12basic_stringIcNS_11char_traitsIcEENS1_IcEEEEEEEENS_16reverse_iteratorIPS8_EEEC1B8ne180100ERS9_RSC_SF_, symObjAddr: 0x3F580, symBinAddr: 0x100042CA0, symSize: 0x78 }
  - { offset: 0x2BAC7, size: 0x8, addend: 0x0, symName: __ZNKSt3__116reverse_iteratorIPNS_4pairIiNS_12basic_stringIcNS_11char_traitsIcEENS_9allocatorIcEEEEEEEdeB8ne180100Ev, symObjAddr: 0x3F6F0, symBinAddr: 0x100042E10, symSize: 0x110 }
  - { offset: 0x2BAFB, size: 0x8, addend: 0x0, symName: __ZNSt3__116reverse_iteratorIPNS_4pairIiNS_12basic_stringIcNS_11char_traitsIcEENS_9allocatorIcEEEEEEEppB8ne180100Ev, symObjAddr: 0x3F800, symBinAddr: 0x100042F20, symSize: 0x130 }
  - { offset: 0x2BB21, size: 0x8, addend: 0x0, symName: __ZNSt3__128__exception_guard_exceptionsINS_29_AllocatorDestroyRangeReverseINS_9allocatorINS_4pairIiNS_12basic_stringIcNS_11char_traitsIcEENS2_IcEEEEEEEENS_16reverse_iteratorIPS9_EEEEE10__completeB8ne180100Ev, symObjAddr: 0x3F930, symBinAddr: 0x100043050, symSize: 0xA0 }
  - { offset: 0x2BB47, size: 0x8, addend: 0x0, symName: __ZNSt3__128__exception_guard_exceptionsINS_29_AllocatorDestroyRangeReverseINS_9allocatorINS_4pairIiNS_12basic_stringIcNS_11char_traitsIcEENS2_IcEEEEEEEENS_16reverse_iteratorIPS9_EEEEED1B8ne180100Ev, symObjAddr: 0x3F9D0, symBinAddr: 0x1000430F0, symSize: 0x50 }
  - { offset: 0x2BB71, size: 0x8, addend: 0x0, symName: __ZNSt3__128__exception_guard_exceptionsINS_29_AllocatorDestroyRangeReverseINS_9allocatorINS_4pairIiNS_12basic_stringIcNS_11char_traitsIcEENS2_IcEEEEEEEENS_16reverse_iteratorIPS9_EEEEEC1B8ne180100ESE_, symObjAddr: 0x3FA20, symBinAddr: 0x100043140, symSize: 0x280 }
  - { offset: 0x2BBAE, size: 0x8, addend: 0x0, symName: __ZNSt3__128__exception_guard_exceptionsINS_29_AllocatorDestroyRangeReverseINS_9allocatorINS_4pairIiNS_12basic_stringIcNS_11char_traitsIcEENS2_IcEEEEEEEENS_16reverse_iteratorIPS9_EEEEEC2B8ne180100ESE_, symObjAddr: 0x3FCA0, symBinAddr: 0x1000433C0, symSize: 0x220 }
  - { offset: 0x2BBEB, size: 0x8, addend: 0x0, symName: __ZNSt3__129_AllocatorDestroyRangeReverseINS_9allocatorINS_4pairIiNS_12basic_stringIcNS_11char_traitsIcEENS1_IcEEEEEEEENS_16reverse_iteratorIPS8_EEEC2B8ne180100ERS9_RSC_SF_, symObjAddr: 0x3FEC0, symBinAddr: 0x1000435E0, symSize: 0x198 }
  - { offset: 0x2BC48, size: 0x8, addend: 0x0, symName: __ZNSt3__119__to_address_helperINS_16reverse_iteratorIPNS_4pairIiNS_12basic_stringIcNS_11char_traitsIcEENS_9allocatorIcEEEEEEEEvE6__callB8ne180100ERKSB_, symObjAddr: 0x40058, symBinAddr: 0x100043778, symSize: 0x68 }
  - { offset: 0x2BC6B, size: 0x8, addend: 0x0, symName: __ZNKSt3__116reverse_iteratorIPNS_4pairIiNS_12basic_stringIcNS_11char_traitsIcEENS_9allocatorIcEEEEEEEptB8ne180100EvQoo12is_pointer_vIT_ErQSB__XcldtfpK_onptEE, symObjAddr: 0x400C0, symBinAddr: 0x1000437E0, symSize: 0x98 }
  - { offset: 0x2BC91, size: 0x8, addend: 0x0, symName: __ZNSt3__128__exception_guard_exceptionsINS_29_AllocatorDestroyRangeReverseINS_9allocatorINS_4pairIiNS_12basic_stringIcNS_11char_traitsIcEENS2_IcEEEEEEEENS_16reverse_iteratorIPS9_EEEEED2B8ne180100Ev, symObjAddr: 0x40450, symBinAddr: 0x100043B70, symSize: 0x120 }
  - { offset: 0x2BCBB, size: 0x8, addend: 0x0, symName: __ZNKSt3__129_AllocatorDestroyRangeReverseINS_9allocatorINS_4pairIiNS_12basic_stringIcNS_11char_traitsIcEENS1_IcEEEEEEEENS_16reverse_iteratorIPS8_EEEclB8ne180100Ev, symObjAddr: 0x40570, symBinAddr: 0x100043C90, symSize: 0x328 }
  - { offset: 0x2BCE2, size: 0x8, addend: 0x0, symName: __ZNSt3__116reverse_iteratorINS0_IPNS_4pairIiNS_12basic_stringIcNS_11char_traitsIcEENS_9allocatorIcEEEEEEEEEC1B8ne180100ESA_, symObjAddr: 0x40B90, symBinAddr: 0x1000442B0, symSize: 0x68 }
  - { offset: 0x2BD1A, size: 0x8, addend: 0x0, symName: __ZNSt3__116allocator_traitsINS_9allocatorINS_4pairIiNS_12basic_stringIcNS_11char_traitsIcEENS1_IcEEEEEEEEE7destroyB8ne180100IS8_vvEEvRS9_PT_, symObjAddr: 0x40E18, symBinAddr: 0x100044538, symSize: 0x30 }
  - { offset: 0x2BD54, size: 0x8, addend: 0x0, symName: __ZNSt3__116reverse_iteratorINS0_IPNS_4pairIiNS_12basic_stringIcNS_11char_traitsIcEENS_9allocatorIcEEEEEEEEEppB8ne180100Ev, symObjAddr: 0x40EA0, symBinAddr: 0x1000445C0, symSize: 0xC0 }
  - { offset: 0x2BD7A, size: 0x8, addend: 0x0, symName: __ZNKSt3__116reverse_iteratorINS0_IPNS_4pairIiNS_12basic_stringIcNS_11char_traitsIcEENS_9allocatorIcEEEEEEEEE4baseB8ne180100Ev, symObjAddr: 0x40F60, symBinAddr: 0x100044680, symSize: 0x78 }
  - { offset: 0x2BDA6, size: 0x8, addend: 0x0, symName: __ZNSt3__119__to_address_helperINS_16reverse_iteratorINS1_IPNS_4pairIiNS_12basic_stringIcNS_11char_traitsIcEENS_9allocatorIcEEEEEEEEEEvE6__callB8ne180100ERKSC_, symObjAddr: 0x41038, symBinAddr: 0x100044758, symSize: 0x68 }
  - { offset: 0x2BDC9, size: 0x8, addend: 0x0, symName: __ZNKSt3__116reverse_iteratorINS0_IPNS_4pairIiNS_12basic_stringIcNS_11char_traitsIcEENS_9allocatorIcEEEEEEEEEptB8ne180100EvQoo12is_pointer_vIT_ErQSC__XcldtfpK_onptEE, symObjAddr: 0x410A0, symBinAddr: 0x1000447C0, symSize: 0x1C8 }
  - { offset: 0x2BDF0, size: 0x8, addend: 0x0, symName: __ZNSt3__116reverse_iteratorIPNS_4pairIiNS_12basic_stringIcNS_11char_traitsIcEENS_9allocatorIcEEEEEEEpLB8ne180100El, symObjAddr: 0x41520, symBinAddr: 0x100044C40, symSize: 0x170 }
  - { offset: 0x2BE24, size: 0x8, addend: 0x0, symName: __ZNSt3__116reverse_iteratorIPNS_4pairIiNS_12basic_stringIcNS_11char_traitsIcEENS_9allocatorIcEEEEEEEmmB8ne180100Ev, symObjAddr: 0x41690, symBinAddr: 0x100044DB0, symSize: 0x130 }
  - { offset: 0x2BE4A, size: 0x8, addend: 0x0, symName: __ZNSt3__116reverse_iteratorINS0_IPNS_4pairIiNS_12basic_stringIcNS_11char_traitsIcEENS_9allocatorIcEEEEEEEEEC2B8ne180100ESA_, symObjAddr: 0x417C0, symBinAddr: 0x100044EE0, symSize: 0x80 }
  - { offset: 0x2BE82, size: 0x8, addend: 0x0, symName: __ZNSt3__116reverse_iteratorIPNS_4pairIiNS_12basic_stringIcNS_11char_traitsIcEENS_9allocatorIcEEEEEEEC2B8ne180100ES9_, symObjAddr: 0x41840, symBinAddr: 0x100044F60, symSize: 0xD0 }
  - { offset: 0x2BEBA, size: 0x8, addend: 0x0, symName: __ZNSt3__114__split_bufferINS_4pairIiNS_12basic_stringIcNS_11char_traitsIcEENS_9allocatorIcEEEEEERNS5_IS8_EEED2Ev, symObjAddr: 0x41910, symBinAddr: 0x100045030, symSize: 0x120 }
  - { offset: 0x2BEE4, size: 0x8, addend: 0x0, symName: __ZNSt3__114__split_bufferINS_4pairIiNS_12basic_stringIcNS_11char_traitsIcEENS_9allocatorIcEEEEEERNS5_IS8_EEE5clearB8ne180100Ev, symObjAddr: 0x41A30, symBinAddr: 0x100045150, symSize: 0x98 }
  - { offset: 0x2BF0A, size: 0x8, addend: 0x0, symName: __ZNSt3__116allocator_traitsINS_9allocatorINS_4pairIiNS_12basic_stringIcNS_11char_traitsIcEENS1_IcEEEEEEEEE10deallocateB8ne180100ERS9_PS8_m, symObjAddr: 0x41AC8, symBinAddr: 0x1000451E8, symSize: 0x38 }
  - { offset: 0x2BF4C, size: 0x8, addend: 0x0, symName: __ZNKSt3__114__split_bufferINS_4pairIiNS_12basic_stringIcNS_11char_traitsIcEENS_9allocatorIcEEEEEERNS5_IS8_EEE8capacityB8ne180100Ev, symObjAddr: 0x41B00, symBinAddr: 0x100045220, symSize: 0x100 }
  - { offset: 0x2BF72, size: 0x8, addend: 0x0, symName: __ZNSt3__114__split_bufferINS_4pairIiNS_12basic_stringIcNS_11char_traitsIcEENS_9allocatorIcEEEEEERNS5_IS8_EEE17__destruct_at_endB8ne180100EPS8_, symObjAddr: 0x41C00, symBinAddr: 0x100045320, symSize: 0x60 }
  - { offset: 0x2BFA6, size: 0x8, addend: 0x0, symName: __ZNSt3__114__split_bufferINS_4pairIiNS_12basic_stringIcNS_11char_traitsIcEENS_9allocatorIcEEEEEERNS5_IS8_EEE17__destruct_at_endB8ne180100EPS8_NS_17integral_constantIbLb0EEE, symObjAddr: 0x41C60, symBinAddr: 0x100045380, symSize: 0x1B0 }
  - { offset: 0x2BFE4, size: 0x8, addend: 0x0, symName: __ZNSt3__19allocatorINS_4pairIiNS_12basic_stringIcNS_11char_traitsIcEENS0_IcEEEEEEE10deallocateB8ne180100EPS7_m, symObjAddr: 0x41E10, symBinAddr: 0x100045530, symSize: 0x70 }
  - { offset: 0x2C026, size: 0x8, addend: 0x0, symName: __ZNKSt3__114__split_bufferINS_4pairIiNS_12basic_stringIcNS_11char_traitsIcEENS_9allocatorIcEEEEEERNS5_IS8_EEE9__end_capB8ne180100Ev, symObjAddr: 0x41E80, symBinAddr: 0x1000455A0, symSize: 0xC0 }
  - { offset: 0x2C04C, size: 0x8, addend: 0x0, symName: __ZNKSt3__117__compressed_pairIPNS_4pairIiNS_12basic_stringIcNS_11char_traitsIcEENS_9allocatorIcEEEEEERNS5_IS8_EEE5firstB8ne180100Ev, symObjAddr: 0x41F40, symBinAddr: 0x100045660, symSize: 0xE0 }
  - { offset: 0x2C072, size: 0x8, addend: 0x0, symName: __ZNSt3__14pairIiNS_12basic_stringIcNS_11char_traitsIcEENS_9allocatorIcEEEEEC2B8ne180100IRiS6_TnNS_9enable_ifIXclsr10_CheckArgsE17__enable_implicitIT_T0_EEEiE4typeELi0EEEOSB_OSC_, symObjAddr: 0x42020, symBinAddr: 0x100045740, symSize: 0x170 }
  - { offset: 0x2C0D0, size: 0x8, addend: 0x0, symName: __ZNSt3__14pairIiNS_12basic_stringIcNS_11char_traitsIcEENS_9allocatorIcEEEEED2Ev, symObjAddr: 0x42190, symBinAddr: 0x1000458B0, symSize: 0x60 }
  - { offset: 0x2C0FC, size: 0x8, addend: 0x0, symName: __ZNSt3__16vectorINS_4pairIiNS_12basic_stringIcNS_11char_traitsIcEENS_9allocatorIcEEEEEENS5_IS8_EEE11__make_iterB8ne180100EPS8_, symObjAddr: 0x421F0, symBinAddr: 0x100045910, symSize: 0x190 }
  - { offset: 0x2C133, size: 0x8, addend: 0x0, symName: __ZNSt3__111__wrap_iterIPNS_4pairIiNS_12basic_stringIcNS_11char_traitsIcEENS_9allocatorIcEEEEEEEC1B8ne180100ES9_, symObjAddr: 0x42380, symBinAddr: 0x100045AA0, symSize: 0x60 }
  - { offset: 0x2C16B, size: 0x8, addend: 0x0, symName: __ZNSt3__111__wrap_iterIPNS_4pairIiNS_12basic_stringIcNS_11char_traitsIcEENS_9allocatorIcEEEEEEEC2B8ne180100ES9_, symObjAddr: 0x423E0, symBinAddr: 0x100045B00, symSize: 0x98 }
  - { offset: 0x2C1A3, size: 0x8, addend: 0x0, symName: __ZNKSt3__111__wrap_iterIPNS_4pairIiNS_12basic_stringIcNS_11char_traitsIcEENS_9allocatorIcEEEEEEE4baseB8ne180100Ev, symObjAddr: 0x42510, symBinAddr: 0x100045C30, symSize: 0x80 }
  - { offset: 0x2C1C9, size: 0x8, addend: 0x0, symName: __ZNSt3__16vectorINS_4pairIiNS_12basic_stringIcNS_11char_traitsIcEENS_9allocatorIcEEEEEENS5_IS8_EEED2B8ne180100Ev, symObjAddr: 0x42590, symBinAddr: 0x100045CB0, symSize: 0x1E0 }
  - { offset: 0x2C1F4, size: 0x8, addend: 0x0, symName: __ZNSt3__16vectorINS_4pairIiNS_12basic_stringIcNS_11char_traitsIcEENS_9allocatorIcEEEEEENS5_IS8_EEE16__destroy_vectorC1B8ne180100ERSA_, symObjAddr: 0x42770, symBinAddr: 0x100045E90, symSize: 0x60 }
  - { offset: 0x2C22D, size: 0x8, addend: 0x0, symName: __ZNSt3__16vectorINS_4pairIiNS_12basic_stringIcNS_11char_traitsIcEENS_9allocatorIcEEEEEENS5_IS8_EEE16__destroy_vectorclB8ne180100Ev, symObjAddr: 0x427D0, symBinAddr: 0x100045EF0, symSize: 0x350 }
  - { offset: 0x2C253, size: 0x8, addend: 0x0, symName: __ZNSt3__16vectorINS_4pairIiNS_12basic_stringIcNS_11char_traitsIcEENS_9allocatorIcEEEEEENS5_IS8_EEE16__destroy_vectorC2B8ne180100ERSA_, symObjAddr: 0x42B20, symBinAddr: 0x100046240, symSize: 0xC0 }
  - { offset: 0x2C28C, size: 0x8, addend: 0x0, symName: __ZNSt3__16vectorINS_4pairIiNS_12basic_stringIcNS_11char_traitsIcEENS_9allocatorIcEEEEEENS5_IS8_EEE7__clearB8ne180100Ev, symObjAddr: 0x42BE0, symBinAddr: 0x100046300, symSize: 0x80 }
  - { offset: 0x2C2B2, size: 0x8, addend: 0x0, symName: __ZNSt3__16vectorINS_4pairIiNS_12basic_stringIcNS_11char_traitsIcEENS_9allocatorIcEEEEEENS5_IS8_EEE22__base_destruct_at_endB8ne180100EPS8_, symObjAddr: 0x42C60, symBinAddr: 0x100046380, symSize: 0x190 }
  - { offset: 0x2C2F6, size: 0x8, addend: 0x0, symName: __ZNSt3__16vectorIcNS_9allocatorIcEEEC1B8ne180100Ev, symObjAddr: 0x42DF0, symBinAddr: 0x100046510, symSize: 0x50 }
  - { offset: 0x2C320, size: 0x8, addend: 0x0, symName: __ZNSt3__16vectorIcNS_9allocatorIcEEE9push_backB8ne180100ERKc, symObjAddr: 0x42E40, symBinAddr: 0x100046560, symSize: 0x210 }
  - { offset: 0x2C364, size: 0x8, addend: 0x0, symName: __ZNKSt3__16vectorIcNS_9allocatorIcEEE4sizeB8ne180100Ev, symObjAddr: 0x43050, symBinAddr: 0x100046770, symSize: 0xC0 }
  - { offset: 0x2C38A, size: 0x8, addend: 0x0, symName: __ZNSt3__16vectorIcNS_9allocatorIcEEE2atEm, symObjAddr: 0x43110, symBinAddr: 0x100046830, symSize: 0x140 }
  - { offset: 0x2C3BF, size: 0x8, addend: 0x0, symName: __ZNSt3__16vectorIcNS_9allocatorIcEEEC2B8ne180100Ev, symObjAddr: 0x43250, symBinAddr: 0x100046970, symSize: 0x240 }
  - { offset: 0x2C3EA, size: 0x8, addend: 0x0, symName: __ZNSt3__117__compressed_pairIPcNS_9allocatorIcEEEC1B8ne180100IDnNS_18__default_init_tagEEEOT_OT0_, symObjAddr: 0x43490, symBinAddr: 0x100046BB0, symSize: 0x60 }
  - { offset: 0x2C442, size: 0x8, addend: 0x0, symName: __ZNSt3__117__compressed_pairIPcNS_9allocatorIcEEEC2B8ne180100IDnNS_18__default_init_tagEEEOT_OT0_, symObjAddr: 0x434F0, symBinAddr: 0x100046C10, symSize: 0xF0 }
  - { offset: 0x2C49A, size: 0x8, addend: 0x0, symName: __ZNSt3__122__compressed_pair_elemIPcLi0ELb0EEC2B8ne180100IDnvEEOT_, symObjAddr: 0x435E0, symBinAddr: 0x100046D00, symSize: 0x80 }
  - { offset: 0x2C4DC, size: 0x8, addend: 0x0, symName: __ZNSt3__16vectorIcNS_9allocatorIcEEE9__end_capB8ne180100Ev, symObjAddr: 0x43660, symBinAddr: 0x100046D80, symSize: 0xC0 }
  - { offset: 0x2C502, size: 0x8, addend: 0x0, symName: __ZNSt3__16vectorIcNS_9allocatorIcEEE22__construct_one_at_endB8ne180100IJRKcEEEvDpOT_, symObjAddr: 0x43720, symBinAddr: 0x100046E40, symSize: 0x3D0 }
  - { offset: 0x2C557, size: 0x8, addend: 0x0, symName: __ZNSt3__16vectorIcNS_9allocatorIcEEE21__push_back_slow_pathIRKcEEPcOT_, symObjAddr: 0x43AF0, symBinAddr: 0x100047210, symSize: 0x4D0 }
  - { offset: 0x2C5BA, size: 0x8, addend: 0x0, symName: __ZNSt3__117__compressed_pairIPcNS_9allocatorIcEEE5firstB8ne180100Ev, symObjAddr: 0x43FC0, symBinAddr: 0x1000476E0, symSize: 0xE0 }
  - { offset: 0x2C5E0, size: 0x8, addend: 0x0, symName: __ZNSt3__122__compressed_pair_elemIPcLi0ELb0EE5__getB8ne180100Ev, symObjAddr: 0x440A0, symBinAddr: 0x1000477C0, symSize: 0x80 }
  - { offset: 0x2C622, size: 0x8, addend: 0x0, symName: __ZNSt3__16vectorIcNS_9allocatorIcEEE21_ConstructTransactionC1B8ne180100ERS3_m, symObjAddr: 0x44120, symBinAddr: 0x100047840, symSize: 0x68 }
  - { offset: 0x2C66A, size: 0x8, addend: 0x0, symName: __ZNSt3__116allocator_traitsINS_9allocatorIcEEE9constructB8ne180100IcJRKcEvvEEvRS2_PT_DpOT0_, symObjAddr: 0x44188, symBinAddr: 0x1000478A8, symSize: 0x58 }
  - { offset: 0x2C6BE, size: 0x8, addend: 0x0, symName: __ZNSt3__16vectorIcNS_9allocatorIcEEE7__allocB8ne180100Ev, symObjAddr: 0x441E0, symBinAddr: 0x100047900, symSize: 0xB8 }
  - { offset: 0x2C6E4, size: 0x8, addend: 0x0, symName: __ZNSt3__16vectorIcNS_9allocatorIcEEE21_ConstructTransactionD1B8ne180100Ev, symObjAddr: 0x442B0, symBinAddr: 0x1000479D0, symSize: 0x50 }
  - { offset: 0x2C70E, size: 0x8, addend: 0x0, symName: __ZNSt3__16vectorIcNS_9allocatorIcEEE21_ConstructTransactionC2B8ne180100ERS3_m, symObjAddr: 0x44300, symBinAddr: 0x100047A20, symSize: 0x2B0 }
  - { offset: 0x2C756, size: 0x8, addend: 0x0, symName: __ZNKSt3__16vectorIcNS_9allocatorIcEEE19__annotate_increaseB8ne180100Em, symObjAddr: 0x445B0, symBinAddr: 0x100047CD0, symSize: 0x1A0 }
  - { offset: 0x2C78B, size: 0x8, addend: 0x0, symName: __ZNKSt3__16vectorIcNS_9allocatorIcEEE31__annotate_contiguous_containerB8ne180100EPKvS5_, symObjAddr: 0x44750, symBinAddr: 0x100047E70, symSize: 0xF0 }
  - { offset: 0x2C7ED, size: 0x8, addend: 0x0, symName: __ZNKSt3__16vectorIcNS_9allocatorIcEEE4dataB8ne180100Ev, symObjAddr: 0x44840, symBinAddr: 0x100047F60, symSize: 0x80 }
  - { offset: 0x2C813, size: 0x8, addend: 0x0, symName: __ZNKSt3__16vectorIcNS_9allocatorIcEEE8capacityB8ne180100Ev, symObjAddr: 0x448C0, symBinAddr: 0x100047FE0, symSize: 0xF0 }
  - { offset: 0x2C839, size: 0x8, addend: 0x0, symName: __ZNKSt3__16vectorIcNS_9allocatorIcEEE9__end_capB8ne180100Ev, symObjAddr: 0x449B0, symBinAddr: 0x1000480D0, symSize: 0xC0 }
  - { offset: 0x2C85F, size: 0x8, addend: 0x0, symName: __ZNKSt3__117__compressed_pairIPcNS_9allocatorIcEEE5firstB8ne180100Ev, symObjAddr: 0x44A70, symBinAddr: 0x100048190, symSize: 0xE0 }
  - { offset: 0x2C885, size: 0x8, addend: 0x0, symName: __ZNKSt3__122__compressed_pair_elemIPcLi0ELb0EE5__getB8ne180100Ev, symObjAddr: 0x44B50, symBinAddr: 0x100048270, symSize: 0x88 }
  - { offset: 0x2C8AB, size: 0x8, addend: 0x0, symName: __ZNSt3__117__compressed_pairIPcNS_9allocatorIcEEE6secondB8ne180100Ev, symObjAddr: 0x44D50, symBinAddr: 0x100048470, symSize: 0xC0 }
  - { offset: 0x2C8D1, size: 0x8, addend: 0x0, symName: __ZNSt3__16vectorIcNS_9allocatorIcEEE21_ConstructTransactionD2B8ne180100Ev, symObjAddr: 0x44E10, symBinAddr: 0x100048530, symSize: 0x2E0 }
  - { offset: 0x2C8FB, size: 0x8, addend: 0x0, symName: __ZNKSt3__16vectorIcNS_9allocatorIcEEE17__annotate_shrinkB8ne180100Em, symObjAddr: 0x450F0, symBinAddr: 0x100048810, symSize: 0x140 }
  - { offset: 0x2C930, size: 0x8, addend: 0x0, symName: __ZNKSt3__16vectorIcNS_9allocatorIcEEE11__recommendB8ne180100Em, symObjAddr: 0x45230, symBinAddr: 0x100048950, symSize: 0x310 }
  - { offset: 0x2C98A, size: 0x8, addend: 0x0, symName: __ZNSt3__114__split_bufferIcRNS_9allocatorIcEEEC1EmmS3_, symObjAddr: 0x45540, symBinAddr: 0x100048C60, symSize: 0x70 }
  - { offset: 0x2C9DE, size: 0x8, addend: 0x0, symName: __ZNSt3__114__split_bufferIcRNS_9allocatorIcEEED1Ev, symObjAddr: 0x45C70, symBinAddr: 0x100049390, symSize: 0x50 }
  - { offset: 0x2CA08, size: 0x8, addend: 0x0, symName: __ZNKSt3__16vectorIcNS_9allocatorIcEEE8max_sizeEv, symObjAddr: 0x45CC0, symBinAddr: 0x1000493E0, symSize: 0x280 }
  - { offset: 0x2CA2F, size: 0x8, addend: 0x0, symName: __ZNKSt3__16vectorIcNS_9allocatorIcEEE20__throw_length_errorB8ne180100Ev, symObjAddr: 0x45F40, symBinAddr: 0x100049660, symSize: 0x78 }
  - { offset: 0x2CA60, size: 0x8, addend: 0x0, symName: __ZNSt3__116allocator_traitsINS_9allocatorIcEEE8max_sizeB8ne180100IS2_vvEEmRKS2_, symObjAddr: 0x45FB8, symBinAddr: 0x1000496D8, symSize: 0x48 }
  - { offset: 0x2CA8B, size: 0x8, addend: 0x0, symName: __ZNKSt3__16vectorIcNS_9allocatorIcEEE7__allocB8ne180100Ev, symObjAddr: 0x46000, symBinAddr: 0x100049720, symSize: 0xB0 }
  - { offset: 0x2CAB1, size: 0x8, addend: 0x0, symName: __ZNKSt3__117__compressed_pairIPcNS_9allocatorIcEEE6secondB8ne180100Ev, symObjAddr: 0x460B0, symBinAddr: 0x1000497D0, symSize: 0xC0 }
  - { offset: 0x2CAD7, size: 0x8, addend: 0x0, symName: __ZNKSt3__122__compressed_pair_elemINS_9allocatorIcEELi1ELb1EE5__getB8ne180100Ev, symObjAddr: 0x46170, symBinAddr: 0x100049890, symSize: 0x60 }
  - { offset: 0x2CAFD, size: 0x8, addend: 0x0, symName: __ZNSt3__114__split_bufferIcRNS_9allocatorIcEEEC2EmmS3_, symObjAddr: 0x461D0, symBinAddr: 0x1000498F0, symSize: 0x590 }
  - { offset: 0x2CB76, size: 0x8, addend: 0x0, symName: __ZNSt3__117__compressed_pairIPcRNS_9allocatorIcEEEC1B8ne180100IDnS4_EEOT_OT0_, symObjAddr: 0x46760, symBinAddr: 0x100049E80, symSize: 0x68 }
  - { offset: 0x2CBCE, size: 0x8, addend: 0x0, symName: __ZNSt3__114__split_bufferIcRNS_9allocatorIcEEE7__allocB8ne180100Ev, symObjAddr: 0x46800, symBinAddr: 0x100049F20, symSize: 0xB0 }
  - { offset: 0x2CBF4, size: 0x8, addend: 0x0, symName: __ZNSt3__114__split_bufferIcRNS_9allocatorIcEEE9__end_capB8ne180100Ev, symObjAddr: 0x468B0, symBinAddr: 0x100049FD0, symSize: 0xC0 }
  - { offset: 0x2CC1A, size: 0x8, addend: 0x0, symName: __ZNSt3__117__compressed_pairIPcRNS_9allocatorIcEEEC2B8ne180100IDnS4_EEOT_OT0_, symObjAddr: 0x46970, symBinAddr: 0x10004A090, symSize: 0x130 }
  - { offset: 0x2CC72, size: 0x8, addend: 0x0, symName: __ZNSt3__122__compressed_pair_elemIRNS_9allocatorIcEELi1ELb0EEC2B8ne180100IS3_vEEOT_, symObjAddr: 0x46AA0, symBinAddr: 0x10004A1C0, symSize: 0xA0 }
  - { offset: 0x2CCB4, size: 0x8, addend: 0x0, symName: __ZNSt3__19allocatorIcE8allocateB8ne180100Em, symObjAddr: 0x46B40, symBinAddr: 0x10004A260, symSize: 0xB0 }
  - { offset: 0x2CCE8, size: 0x8, addend: 0x0, symName: __ZNSt3__117__compressed_pairIPcRNS_9allocatorIcEEE6secondB8ne180100Ev, symObjAddr: 0x46BF0, symBinAddr: 0x10004A310, symSize: 0xD0 }
  - { offset: 0x2CD0E, size: 0x8, addend: 0x0, symName: __ZNSt3__122__compressed_pair_elemIRNS_9allocatorIcEELi1ELb0EE5__getB8ne180100Ev, symObjAddr: 0x46CC0, symBinAddr: 0x10004A3E0, symSize: 0xA0 }
  - { offset: 0x2CD34, size: 0x8, addend: 0x0, symName: __ZNSt3__117__compressed_pairIPcRNS_9allocatorIcEEE5firstB8ne180100Ev, symObjAddr: 0x46D60, symBinAddr: 0x10004A480, symSize: 0xE0 }
  - { offset: 0x2CD5A, size: 0x8, addend: 0x0, symName: __ZNKSt3__16vectorIcNS_9allocatorIcEEE17__annotate_deleteB8ne180100Ev, symObjAddr: 0x46E40, symBinAddr: 0x10004A560, symSize: 0x148 }
  - { offset: 0x2CD80, size: 0x8, addend: 0x0, symName: __ZNSt3__116reverse_iteratorIPcEC1B8ne180100ES1_, symObjAddr: 0x471E0, symBinAddr: 0x10004A900, symSize: 0x60 }
  - { offset: 0x2CDB8, size: 0x8, addend: 0x0, symName: __ZNKSt3__116reverse_iteratorIPcE4baseB8ne180100Ev, symObjAddr: 0x47240, symBinAddr: 0x10004A960, symSize: 0x88 }
  - { offset: 0x2CDDE, size: 0x8, addend: 0x0, symName: __ZNKSt3__16vectorIcNS_9allocatorIcEEE14__annotate_newB8ne180100Em, symObjAddr: 0x47430, symBinAddr: 0x10004AB50, symSize: 0x148 }
  - { offset: 0x2CE30, size: 0x8, addend: 0x0, symName: __ZNKSt3__111__move_loopINS_17_ClassicAlgPolicyEEclB8ne180100INS_16reverse_iteratorIPcEES6_S6_EENS_4pairIT_T1_EES8_T0_S9_, symObjAddr: 0x48130, symBinAddr: 0x10004B850, symSize: 0x3E8 }
  - { offset: 0x2CEA8, size: 0x8, addend: 0x0, symName: __ZNSt3__119__unwrap_range_implINS_16reverse_iteratorIPcEES3_E8__unwrapB8ne180100ES3_S3_, symObjAddr: 0x48768, symBinAddr: 0x10004BE88, symSize: 0x278 }
  - { offset: 0x2CEE1, size: 0x8, addend: 0x0, symName: __ZNSt3__14pairINS_16reverse_iteratorIPcEES3_EC1B8ne180100IS3_S3_TnNS_9enable_ifIXclsr10_CheckArgsE17__enable_implicitIT_T0_EEEiE4typeELi0EEEOS7_OS8_, symObjAddr: 0x489E0, symBinAddr: 0x10004C100, symSize: 0x60 }
  - { offset: 0x2CF3F, size: 0x8, addend: 0x0, symName: __ZNSt3__14pairINS_16reverse_iteratorIPcEES3_EC2B8ne180100IS3_S3_TnNS_9enable_ifIXclsr10_CheckArgsE17__enable_implicitIT_T0_EEEiE4typeELi0EEEOS7_OS8_, symObjAddr: 0x48A40, symBinAddr: 0x10004C160, symSize: 0x88 }
  - { offset: 0x2CFA3, size: 0x8, addend: 0x0, symName: __ZNSt3__18_IterOpsINS_17_ClassicAlgPolicyEE11__iter_moveB8ne180100IRNS_16reverse_iteratorIPcEETnNS_9enable_ifIXsr12is_referenceIDTdeclsr3stdE7declvalIRT_EEEEE5valueEiE4typeELi0EEEDTclsr3stdE4movedeclsr3stdE7declvalISA_EEEEOS9_, symObjAddr: 0x48B68, symBinAddr: 0x10004C288, symSize: 0x78 }
  - { offset: 0x2CFD5, size: 0x8, addend: 0x0, symName: __ZNKSt3__116reverse_iteratorIPcEdeB8ne180100Ev, symObjAddr: 0x48BE0, symBinAddr: 0x10004C300, symSize: 0x100 }
  - { offset: 0x2D009, size: 0x8, addend: 0x0, symName: __ZNSt3__116reverse_iteratorIPcEppB8ne180100Ev, symObjAddr: 0x48CE0, symBinAddr: 0x10004C400, symSize: 0x138 }
  - { offset: 0x2D02F, size: 0x8, addend: 0x0, symName: __ZNSt3__18_IterOpsINS_17_ClassicAlgPolicyEE25__validate_iter_referenceB8ne180100IRNS_16reverse_iteratorIPcEEEEvv, symObjAddr: 0x48E18, symBinAddr: 0x10004C538, symSize: 0x10 }
  - { offset: 0x2D04D, size: 0x8, addend: 0x0, symName: __ZNSt3__118__unwrap_iter_implINS_16reverse_iteratorIPcEELb0EE8__unwrapB8ne180100ES3_, symObjAddr: 0x48E28, symBinAddr: 0x10004C548, symSize: 0x40 }
  - { offset: 0x2D070, size: 0x8, addend: 0x0, symName: __ZNSt3__119__unwrap_range_implINS_16reverse_iteratorIPcEES3_E8__rewrapB8ne180100ES3_S3_, symObjAddr: 0x48E68, symBinAddr: 0x10004C588, symSize: 0x80 }
  - { offset: 0x2D0A1, size: 0x8, addend: 0x0, symName: __ZNSt3__118__unwrap_iter_implINS_16reverse_iteratorIPcEELb0EE8__rewrapB8ne180100ES3_S3_, symObjAddr: 0x48EE8, symBinAddr: 0x10004C608, symSize: 0x38 }
  - { offset: 0x2D0CE, size: 0x8, addend: 0x0, symName: __ZNSt3__116reverse_iteratorIPcEC2B8ne180100ES1_, symObjAddr: 0x48F20, symBinAddr: 0x10004C640, symSize: 0xD0 }
  - { offset: 0x2D106, size: 0x8, addend: 0x0, symName: __ZNSt3__114__split_bufferIcRNS_9allocatorIcEEED2Ev, symObjAddr: 0x48FF0, symBinAddr: 0x10004C710, symSize: 0x120 }
  - { offset: 0x2D130, size: 0x8, addend: 0x0, symName: __ZNSt3__114__split_bufferIcRNS_9allocatorIcEEE5clearB8ne180100Ev, symObjAddr: 0x49110, symBinAddr: 0x10004C830, symSize: 0x90 }
  - { offset: 0x2D156, size: 0x8, addend: 0x0, symName: __ZNKSt3__114__split_bufferIcRNS_9allocatorIcEEE8capacityB8ne180100Ev, symObjAddr: 0x491A0, symBinAddr: 0x10004C8C0, symSize: 0xF0 }
  - { offset: 0x2D17C, size: 0x8, addend: 0x0, symName: __ZNSt3__114__split_bufferIcRNS_9allocatorIcEEE17__destruct_at_endB8ne180100EPc, symObjAddr: 0x49290, symBinAddr: 0x10004C9B0, symSize: 0x60 }
  - { offset: 0x2D1B0, size: 0x8, addend: 0x0, symName: __ZNSt3__114__split_bufferIcRNS_9allocatorIcEEE17__destruct_at_endB8ne180100EPcNS_17integral_constantIbLb0EEE, symObjAddr: 0x492F0, symBinAddr: 0x10004CA10, symSize: 0x1B8 }
  - { offset: 0x2D1EE, size: 0x8, addend: 0x0, symName: __ZNSt3__116allocator_traitsINS_9allocatorIcEEE7destroyB8ne180100IcvvEEvRS2_PT_, symObjAddr: 0x494A8, symBinAddr: 0x10004CBC8, symSize: 0x30 }
  - { offset: 0x2D228, size: 0x8, addend: 0x0, symName: __ZNKSt3__114__split_bufferIcRNS_9allocatorIcEEE9__end_capB8ne180100Ev, symObjAddr: 0x494F0, symBinAddr: 0x10004CC10, symSize: 0xC0 }
  - { offset: 0x2D24E, size: 0x8, addend: 0x0, symName: __ZNKSt3__117__compressed_pairIPcRNS_9allocatorIcEEE5firstB8ne180100Ev, symObjAddr: 0x495B0, symBinAddr: 0x10004CCD0, symSize: 0xE0 }
  - { offset: 0x2D274, size: 0x8, addend: 0x0, symName: __ZNKSt3__16vectorIcNS_9allocatorIcEEE20__throw_out_of_rangeB8ne180100Ev, symObjAddr: 0x49690, symBinAddr: 0x10004CDB0, symSize: 0x70 }
  - { offset: 0x2D29A, size: 0x8, addend: 0x0, symName: __ZNSt3__16vectorIcNS_9allocatorIcEEED2B8ne180100Ev, symObjAddr: 0x49700, symBinAddr: 0x10004CE20, symSize: 0x1E0 }
  - { offset: 0x2D2C5, size: 0x8, addend: 0x0, symName: __ZNSt3__16vectorIcNS_9allocatorIcEEE16__destroy_vectorC1B8ne180100ERS3_, symObjAddr: 0x498E0, symBinAddr: 0x10004D000, symSize: 0x60 }
  - { offset: 0x2D2FE, size: 0x8, addend: 0x0, symName: __ZNSt3__16vectorIcNS_9allocatorIcEEE16__destroy_vectorclB8ne180100Ev, symObjAddr: 0x49940, symBinAddr: 0x10004D060, symSize: 0x350 }
  - { offset: 0x2D324, size: 0x8, addend: 0x0, symName: __ZNSt3__16vectorIcNS_9allocatorIcEEE16__destroy_vectorC2B8ne180100ERS3_, symObjAddr: 0x49C90, symBinAddr: 0x10004D3B0, symSize: 0xC0 }
  - { offset: 0x2D35D, size: 0x8, addend: 0x0, symName: __ZNSt3__16vectorIcNS_9allocatorIcEEE7__clearB8ne180100Ev, symObjAddr: 0x49D50, symBinAddr: 0x10004D470, symSize: 0x80 }
  - { offset: 0x2D383, size: 0x8, addend: 0x0, symName: __ZNSt3__16vectorIcNS_9allocatorIcEEE22__base_destruct_at_endB8ne180100EPc, symObjAddr: 0x49DD0, symBinAddr: 0x10004D4F0, symSize: 0x180 }
  - { offset: 0x2D3C7, size: 0x8, addend: 0x0, symName: __ZNKSt3__112basic_stringIcNS_11char_traitsIcEENS_9allocatorIcEEE15__get_long_sizeB8ne180100Ev, symObjAddr: 0x49F50, symBinAddr: 0x10004D670, symSize: 0x180 }
  - { offset: 0x2D3ED, size: 0x8, addend: 0x0, symName: __ZNSt3__19allocatorIcEC1B8ne180100Ev, symObjAddr: 0x4A0D0, symBinAddr: 0x10004D7F0, symSize: 0x40 }
  - { offset: 0x2D417, size: 0x8, addend: 0x0, symName: __ZNKSt3__112basic_stringIcNS_11char_traitsIcEENS_9allocatorIcEEE6lengthB8ne180100Ev, symObjAddr: 0x4A110, symBinAddr: 0x10004D830, symSize: 0x50 }
  - { offset: 0x2D43D, size: 0x8, addend: 0x0, symName: __ZNKSt3__113unordered_mapINS_12basic_stringIcNS_11char_traitsIcEENS_9allocatorIcEEEEdNS_4hashIS6_EENS_8equal_toIS6_EENS4_INS_4pairIKS6_dEEEEE4findB8ne180100ERSC_, symObjAddr: 0x4A160, symBinAddr: 0x10004D880, symSize: 0x208 }
  - { offset: 0x2D474, size: 0x8, addend: 0x0, symName: __ZNKSt3__113unordered_mapINS_12basic_stringIcNS_11char_traitsIcEENS_9allocatorIcEEEEdNS_4hashIS6_EENS_8equal_toIS6_EENS4_INS_4pairIKS6_dEEEEE3endB8ne180100Ev, symObjAddr: 0x4A400, symBinAddr: 0x10004DB20, symSize: 0x1C0 }
  - { offset: 0x2D49B, size: 0x8, addend: 0x0, symName: __ZNKSt3__125__hash_map_const_iteratorINS_21__hash_const_iteratorIPNS_11__hash_nodeINS_17__hash_value_typeINS_12basic_stringIcNS_11char_traitsIcEENS_9allocatorIcEEEEdEEPvEEEEEptB8ne180100Ev, symObjAddr: 0x4A5C0, symBinAddr: 0x10004DCE0, symSize: 0x100 }
  - { offset: 0x2D4C1, size: 0x8, addend: 0x0, symName: __ZNKSt3__112__hash_tableINS_17__hash_value_typeINS_12basic_stringIcNS_11char_traitsIcEENS_9allocatorIcEEEEdEENS_22__unordered_map_hasherIS7_S8_NS_4hashIS7_EENS_8equal_toIS7_EELb1EEENS_21__unordered_map_equalIS7_S8_SD_SB_Lb1EEENS5_IS8_EEE4findIS7_EENS_21__hash_const_iteratorIPNS_11__hash_nodeIS8_PvEEEERKT_, symObjAddr: 0x4A6C0, symBinAddr: 0x10004DDE0, symSize: 0x750 }
  - { offset: 0x2D547, size: 0x8, addend: 0x0, symName: __ZNSt3__125__hash_map_const_iteratorINS_21__hash_const_iteratorIPNS_11__hash_nodeINS_17__hash_value_typeINS_12basic_stringIcNS_11char_traitsIcEENS_9allocatorIcEEEEdEEPvEEEEEC1B8ne180100ESE_, symObjAddr: 0x4AE10, symBinAddr: 0x10004E530, symSize: 0x60 }
  - { offset: 0x2D580, size: 0x8, addend: 0x0, symName: __ZNKSt3__112__hash_tableINS_17__hash_value_typeINS_12basic_stringIcNS_11char_traitsIcEENS_9allocatorIcEEEEdEENS_22__unordered_map_hasherIS7_S8_NS_4hashIS7_EENS_8equal_toIS7_EELb1EEENS_21__unordered_map_equalIS7_S8_SD_SB_Lb1EEENS5_IS8_EEE13hash_functionB8ne180100Ev, symObjAddr: 0x4AE70, symBinAddr: 0x10004E590, symSize: 0xB0 }
  - { offset: 0x2D5A6, size: 0x8, addend: 0x0, symName: __ZNKSt3__112__hash_tableINS_17__hash_value_typeINS_12basic_stringIcNS_11char_traitsIcEENS_9allocatorIcEEEEdEENS_22__unordered_map_hasherIS7_S8_NS_4hashIS7_EENS_8equal_toIS7_EELb1EEENS_21__unordered_map_equalIS7_S8_SD_SB_Lb1EEENS5_IS8_EEE6key_eqB8ne180100Ev, symObjAddr: 0x4AF20, symBinAddr: 0x10004E640, symSize: 0xB0 }
  - { offset: 0x2D5CC, size: 0x8, addend: 0x0, symName: __ZNSt3__121__hash_const_iteratorIPNS_11__hash_nodeINS_17__hash_value_typeINS_12basic_stringIcNS_11char_traitsIcEENS_9allocatorIcEEEEdEEPvEEEC1B8ne180100EPNS_16__hash_node_baseISC_EE, symObjAddr: 0x4AFD0, symBinAddr: 0x10004E6F0, symSize: 0x60 }
  - { offset: 0x2D605, size: 0x8, addend: 0x0, symName: __ZNKSt3__112__hash_tableINS_17__hash_value_typeINS_12basic_stringIcNS_11char_traitsIcEENS_9allocatorIcEEEEdEENS_22__unordered_map_hasherIS7_S8_NS_4hashIS7_EENS_8equal_toIS7_EELb1EEENS_21__unordered_map_equalIS7_S8_SD_SB_Lb1EEENS5_IS8_EEE3endEv, symObjAddr: 0x4B030, symBinAddr: 0x10004E750, symSize: 0x180 }
  - { offset: 0x2D62E, size: 0x8, addend: 0x0, symName: __ZNKSt3__117__compressed_pairImNS_22__unordered_map_hasherINS_12basic_stringIcNS_11char_traitsIcEENS_9allocatorIcEEEENS_17__hash_value_typeIS7_dEENS_4hashIS7_EENS_8equal_toIS7_EELb1EEEE6secondB8ne180100Ev, symObjAddr: 0x4B1B0, symBinAddr: 0x10004E8D0, symSize: 0xC0 }
  - { offset: 0x2D654, size: 0x8, addend: 0x0, symName: __ZNKSt3__122__compressed_pair_elemINS_22__unordered_map_hasherINS_12basic_stringIcNS_11char_traitsIcEENS_9allocatorIcEEEENS_17__hash_value_typeIS7_dEENS_4hashIS7_EENS_8equal_toIS7_EELb1EEELi1ELb1EE5__getB8ne180100Ev, symObjAddr: 0x4B270, symBinAddr: 0x10004E990, symSize: 0x60 }
  - { offset: 0x2D67A, size: 0x8, addend: 0x0, symName: __ZNKSt3__117__compressed_pairIfNS_21__unordered_map_equalINS_12basic_stringIcNS_11char_traitsIcEENS_9allocatorIcEEEENS_17__hash_value_typeIS7_dEENS_8equal_toIS7_EENS_4hashIS7_EELb1EEEE6secondB8ne180100Ev, symObjAddr: 0x4B2D0, symBinAddr: 0x10004E9F0, symSize: 0xC0 }
  - { offset: 0x2D6A0, size: 0x8, addend: 0x0, symName: __ZNKSt3__122__compressed_pair_elemINS_21__unordered_map_equalINS_12basic_stringIcNS_11char_traitsIcEENS_9allocatorIcEEEENS_17__hash_value_typeIS7_dEENS_8equal_toIS7_EENS_4hashIS7_EELb1EEELi1ELb1EE5__getB8ne180100Ev, symObjAddr: 0x4B390, symBinAddr: 0x10004EAB0, symSize: 0x60 }
  - { offset: 0x2D6C6, size: 0x8, addend: 0x0, symName: __ZNSt3__121__hash_const_iteratorIPNS_11__hash_nodeINS_17__hash_value_typeINS_12basic_stringIcNS_11char_traitsIcEENS_9allocatorIcEEEEdEEPvEEEC2B8ne180100EPNS_16__hash_node_baseISC_EE, symObjAddr: 0x4B3F0, symBinAddr: 0x10004EB10, symSize: 0x90 }
  - { offset: 0x2D6FF, size: 0x8, addend: 0x0, symName: __ZNSt3__125__hash_map_const_iteratorINS_21__hash_const_iteratorIPNS_11__hash_nodeINS_17__hash_value_typeINS_12basic_stringIcNS_11char_traitsIcEENS_9allocatorIcEEEEdEEPvEEEEEC2B8ne180100ESE_, symObjAddr: 0x4B480, symBinAddr: 0x10004EBA0, symSize: 0x68 }
  - { offset: 0x2D738, size: 0x8, addend: 0x0, symName: __ZNSt3__114pointer_traitsIPKNS_4pairIKNS_12basic_stringIcNS_11char_traitsIcEENS_9allocatorIcEEEEdEEE10pointer_toB8ne180100ERSA_, symObjAddr: 0x4B5C8, symBinAddr: 0x10004ECE8, symSize: 0x18 }
  - { offset: 0x2D75B, size: 0x8, addend: 0x0, symName: __ZNKSt3__121__hash_const_iteratorIPNS_11__hash_nodeINS_17__hash_value_typeINS_12basic_stringIcNS_11char_traitsIcEENS_9allocatorIcEEEEdEEPvEEEptB8ne180100Ev, symObjAddr: 0x4B5E0, symBinAddr: 0x10004ED00, symSize: 0x138 }
  - { offset: 0x2D781, size: 0x8, addend: 0x0, symName: __ZNSt3__114pointer_traitsIPKNS_17__hash_value_typeINS_12basic_stringIcNS_11char_traitsIcEENS_9allocatorIcEEEEdEEE10pointer_toB8ne180100ERS9_, symObjAddr: 0x4B718, symBinAddr: 0x10004EE38, symSize: 0x18 }
  - { offset: 0x2D7A4, size: 0x8, addend: 0x0, symName: __ZNSt3__16vectorIcNS_9allocatorIcEEEC2ERKS3_, symObjAddr: 0x4B730, symBinAddr: 0x10004EE50, symSize: 0x3E8 }
  - { offset: 0x2D7E1, size: 0x8, addend: 0x0, symName: __ZNSt3__116allocator_traitsINS_9allocatorIcEEE37select_on_container_copy_constructionB8ne180100IS2_vvEES2_RKS2_, symObjAddr: 0x4BB18, symBinAddr: 0x10004F238, symSize: 0x18 }
  - { offset: 0x2D816, size: 0x8, addend: 0x0, symName: __ZNSt3__117__compressed_pairIPcNS_9allocatorIcEEEC1B8ne180100IDnS3_EEOT_OT0_, symObjAddr: 0x4BB30, symBinAddr: 0x10004F250, symSize: 0x60 }
  - { offset: 0x2D86E, size: 0x8, addend: 0x0, symName: __ZNSt3__16vectorIcNS_9allocatorIcEEE16__init_with_sizeB8ne180100IPcS5_EEvT_T0_m, symObjAddr: 0x4BB90, symBinAddr: 0x10004F2B0, symSize: 0x300 }
  - { offset: 0x2D8EA, size: 0x8, addend: 0x0, symName: __ZNSt3__117__compressed_pairIPcNS_9allocatorIcEEEC2B8ne180100IDnS3_EEOT_OT0_, symObjAddr: 0x4BE90, symBinAddr: 0x10004F5B0, symSize: 0x110 }
  - { offset: 0x2D942, size: 0x8, addend: 0x0, symName: __ZNSt3__122__compressed_pair_elemINS_9allocatorIcEELi1ELb1EEC2B8ne180100IS2_vEEOT_, symObjAddr: 0x4BFA0, symBinAddr: 0x10004F6C0, symSize: 0x48 }
  - { offset: 0x2D984, size: 0x8, addend: 0x0, symName: __ZNSt3__16vectorIcNS_9allocatorIcEEE11__vallocateB8ne180100Em, symObjAddr: 0x4C060, symBinAddr: 0x10004F780, symSize: 0x420 }
  - { offset: 0x2D9CE, size: 0x8, addend: 0x0, symName: __ZNSt3__16vectorIcNS_9allocatorIcEEE18__construct_at_endIPcS5_EEvT_T0_m, symObjAddr: 0x4C480, symBinAddr: 0x10004FBA0, symSize: 0x390 }
  - { offset: 0x2DA4A, size: 0x8, addend: 0x0, symName: __ZNSt3__128__exception_guard_exceptionsINS_6vectorIcNS_9allocatorIcEEE16__destroy_vectorEE10__completeB8ne180100Ev, symObjAddr: 0x4C810, symBinAddr: 0x10004FF30, symSize: 0xA0 }
  - { offset: 0x2DA70, size: 0x8, addend: 0x0, symName: __ZNSt3__128__exception_guard_exceptionsINS_6vectorIcNS_9allocatorIcEEE16__destroy_vectorEED1B8ne180100Ev, symObjAddr: 0x4C8B0, symBinAddr: 0x10004FFD0, symSize: 0x50 }
  - { offset: 0x2DA9A, size: 0x8, addend: 0x0, symName: __ZNSt3__128__exception_guard_exceptionsINS_6vectorIcNS_9allocatorIcEEE16__destroy_vectorEEC1B8ne180100ES5_, symObjAddr: 0x4C900, symBinAddr: 0x100050020, symSize: 0x60 }
  - { offset: 0x2DAD2, size: 0x8, addend: 0x0, symName: __ZNSt3__128__exception_guard_exceptionsINS_6vectorIcNS_9allocatorIcEEE16__destroy_vectorEEC2B8ne180100ES5_, symObjAddr: 0x4C960, symBinAddr: 0x100050080, symSize: 0xB8 }
  - { offset: 0x2DB27, size: 0x8, addend: 0x0, symName: __ZNSt3__119__unwrap_range_implIPcS1_E8__unwrapB8ne180100ES1_S1_, symObjAddr: 0x4CD48, symBinAddr: 0x100050468, symSize: 0x1E8 }
  - { offset: 0x2DB60, size: 0x8, addend: 0x0, symName: __ZNSt3__14pairIPcS1_EC1B8ne180100IS1_S1_TnNS_9enable_ifIXclsr10_CheckArgsE17__enable_implicitIT_T0_EEEiE4typeELi0EEEOS5_OS6_, symObjAddr: 0x4CF30, symBinAddr: 0x100050650, symSize: 0x60 }
  - { offset: 0x2DBBE, size: 0x8, addend: 0x0, symName: __ZNSt3__14pairIPcS1_EC2B8ne180100IS1_S1_TnNS_9enable_ifIXclsr10_CheckArgsE17__enable_implicitIT_T0_EEEiE4typeELi0EEEOS5_OS6_, symObjAddr: 0x4CF90, symBinAddr: 0x1000506B0, symSize: 0x198 }
  - { offset: 0x2DC27, size: 0x8, addend: 0x0, symName: __ZNKSt3__114__copy_trivialclB8ne180100IccTnNS_9enable_ifIXsr38__can_lower_copy_assignment_to_memmoveIT_T0_EE5valueEiE4typeELi0EEENS_4pairIPS3_PS4_EES8_S8_S9_, symObjAddr: 0x4D700, symBinAddr: 0x100050E20, symSize: 0x78 }
  - { offset: 0x2DC8F, size: 0x8, addend: 0x0, symName: __ZNSt3__14pairIPcS1_EC1B8ne180100IRS1_S1_TnNS_9enable_ifIXclsr10_CheckArgsE17__enable_implicitIT_T0_EEEiE4typeELi0EEEOS6_OS7_, symObjAddr: 0x4DE20, symBinAddr: 0x100051540, symSize: 0x60 }
  - { offset: 0x2DCED, size: 0x8, addend: 0x0, symName: __ZNSt3__14pairIPcS1_EC2B8ne180100IRS1_S1_TnNS_9enable_ifIXclsr10_CheckArgsE17__enable_implicitIT_T0_EEEiE4typeELi0EEEOS6_OS7_, symObjAddr: 0x4DE80, symBinAddr: 0x1000515A0, symSize: 0x198 }
  - { offset: 0x2DD4B, size: 0x8, addend: 0x0, symName: __ZNSt3__119__unwrap_range_implIPcS1_E8__rewrapB8ne180100ES1_S1_, symObjAddr: 0x4E018, symBinAddr: 0x100051738, symSize: 0x30 }
  - { offset: 0x2DD7C, size: 0x8, addend: 0x0, symName: __ZNSt3__118__unwrap_iter_implIPcLb1EE8__unwrapB8ne180100ES1_, symObjAddr: 0x4E048, symBinAddr: 0x100051768, symSize: 0x30 }
  - { offset: 0x2DD9F, size: 0x8, addend: 0x0, symName: __ZNSt3__118__unwrap_iter_implIPcLb1EE8__rewrapB8ne180100ES1_S1_, symObjAddr: 0x4E078, symBinAddr: 0x100051798, symSize: 0x98 }
  - { offset: 0x2DDD0, size: 0x8, addend: 0x0, symName: __ZNSt3__128__exception_guard_exceptionsINS_6vectorIcNS_9allocatorIcEEE16__destroy_vectorEED2B8ne180100Ev, symObjAddr: 0x4E110, symBinAddr: 0x100051830, symSize: 0x100 }
  - { offset: 0x2DDFA, size: 0x8, addend: 0x0, symName: __ZNSt3__123mersenne_twister_engineIjLm32ELm624ELm397ELm31ELj2567483615ELm11ELj4294967295ELm7ELj2636928640ELm15ELj4022730752ELm18ELj1812433253EEclEv, symObjAddr: 0x4E210, symBinAddr: 0x100051930, symSize: 0xA18 }
  - { offset: 0x2DE6D, size: 0x8, addend: 0x0, symName: __ZNSt3__123mersenne_twister_engineIjLm32ELm624ELm397ELm31ELj2567483615ELm11ELj4294967295ELm7ELj2636928640ELm15ELj4022730752ELm18ELj1812433253EE8__rshiftB8ne180100ILm1ETnNS_9enable_ifIXltT_L_ZNS1_3_DtEEEiE4typeELi0EEEjj, symObjAddr: 0x4EC28, symBinAddr: 0x100052348, symSize: 0x50 }
  - { offset: 0x2DEA1, size: 0x8, addend: 0x0, symName: __ZNSt3__123mersenne_twister_engineIjLm32ELm624ELm397ELm31ELj2567483615ELm11ELj4294967295ELm7ELj2636928640ELm15ELj4022730752ELm18ELj1812433253EE8__rshiftB8ne180100ILm11ETnNS_9enable_ifIXltT_L_ZNS1_3_DtEEEiE4typeELi0EEEjj, symObjAddr: 0x4EC78, symBinAddr: 0x100052398, symSize: 0x50 }
  - { offset: 0x2DED5, size: 0x8, addend: 0x0, symName: __ZNSt3__123mersenne_twister_engineIjLm32ELm624ELm397ELm31ELj2567483615ELm11ELj4294967295ELm7ELj2636928640ELm15ELj4022730752ELm18ELj1812433253EE8__lshiftB8ne180100ILm7ETnNS_9enable_ifIXltT_Lm32EEiE4typeELi0EEEjj, symObjAddr: 0x4ECC8, symBinAddr: 0x1000523E8, symSize: 0x50 }
  - { offset: 0x2DF09, size: 0x8, addend: 0x0, symName: __ZNSt3__123mersenne_twister_engineIjLm32ELm624ELm397ELm31ELj2567483615ELm11ELj4294967295ELm7ELj2636928640ELm15ELj4022730752ELm18ELj1812433253EE8__lshiftB8ne180100ILm15ETnNS_9enable_ifIXltT_Lm32EEiE4typeELi0EEEjj, symObjAddr: 0x4ED18, symBinAddr: 0x100052438, symSize: 0x50 }
  - { offset: 0x2DF3D, size: 0x8, addend: 0x0, symName: __ZNSt3__123mersenne_twister_engineIjLm32ELm624ELm397ELm31ELj2567483615ELm11ELj4294967295ELm7ELj2636928640ELm15ELj4022730752ELm18ELj1812433253EE8__rshiftB8ne180100ILm18ETnNS_9enable_ifIXltT_L_ZNS1_3_DtEEEiE4typeELi0EEEjj, symObjAddr: 0x4ED68, symBinAddr: 0x100052488, symSize: 0x48 }
  - { offset: 0x2DF71, size: 0x8, addend: 0x0, symName: __ZNSt3__16vectorIcNS_9allocatorIcEEE19__copy_assign_allocB8ne180100ERKS3_, symObjAddr: 0x4EDB0, symBinAddr: 0x1000524D0, symSize: 0x90 }
  - { offset: 0x2DFA6, size: 0x8, addend: 0x0, symName: __ZNSt3__16vectorIcNS_9allocatorIcEEE6assignIPcTnNS_9enable_ifIXaasr31__has_forward_iterator_categoryIT_EE5valuesr16is_constructibleIcNS_15iterator_traitsIS7_E9referenceEEE5valueEiE4typeELi0EEEvS7_S7_, symObjAddr: 0x4EE40, symBinAddr: 0x100052560, symSize: 0x80 }
  - { offset: 0x2DFF9, size: 0x8, addend: 0x0, symName: __ZNSt3__16vectorIcNS_9allocatorIcEEE19__copy_assign_allocB8ne180100ERKS3_NS_17integral_constantIbLb0EEE, symObjAddr: 0x4EEC0, symBinAddr: 0x1000525E0, symSize: 0x50 }
  - { offset: 0x2E035, size: 0x8, addend: 0x0, symName: __ZNSt3__16vectorIcNS_9allocatorIcEEE18__assign_with_sizeB8ne180100IPcS5_EEvT_T0_l, symObjAddr: 0x4EF10, symBinAddr: 0x100052630, symSize: 0x408 }
  - { offset: 0x2E0EA, size: 0x8, addend: 0x0, symName: __ZNSt3__16vectorIcNS_9allocatorIcEEE17__destruct_at_endB8ne180100EPc, symObjAddr: 0x4F4A0, symBinAddr: 0x100052BC0, symSize: 0x80 }
  - { offset: 0x2E12E, size: 0x8, addend: 0x0, symName: __ZNSt3__16vectorIcNS_9allocatorIcEEE13__vdeallocateEv, symObjAddr: 0x4F520, symBinAddr: 0x100052C40, symSize: 0x1E8 }
  - { offset: 0x2E156, size: 0x8, addend: 0x0, symName: __ZNSt3__16vectorIcNS_9allocatorIcEEE5clearB8ne180100Ev, symObjAddr: 0x4F860, symBinAddr: 0x100052F80, symSize: 0x78 }
  - { offset: 0x2E18B, size: 0x8, addend: 0x0, symName: __ZNSt3__114basic_ofstreamIcNS_11char_traitsIcEEED2Ev, symObjAddr: 0x4F900, symBinAddr: 0x100053020, symSize: 0x190 }
  - { offset: 0x2E1C5, size: 0x8, addend: 0x0, symName: __ZTv0_n24_NSt3__114basic_ofstreamIcNS_11char_traitsIcEEED1Ev, symObjAddr: 0x4FA90, symBinAddr: 0x1000531B0, symSize: 0x90 }
  - { offset: 0x2E1DC, size: 0x8, addend: 0x0, symName: __ZNSt3__123mersenne_twister_engineIjLm32ELm624ELm397ELm31ELj2567483615ELm11ELj4294967295ELm7ELj2636928640ELm15ELj4022730752ELm18ELj1812433253EEC1B8ne180100Ej, symObjAddr: 0x4FB20, symBinAddr: 0x100053240, symSize: 0x60 }
  - { offset: 0x2E214, size: 0x8, addend: 0x0, symName: __ZNSt3__123mersenne_twister_engineIjLm32ELm624ELm397ELm31ELj2567483615ELm11ELj4294967295ELm7ELj2636928640ELm15ELj4022730752ELm18ELj1812433253EEC2B8ne180100Ej, symObjAddr: 0x4FB80, symBinAddr: 0x1000532A0, symSize: 0x68 }
  - { offset: 0x2E26F, size: 0x8, addend: 0x0, symName: __ZNKSt3__113basic_ostreamIcNS_11char_traitsIcEEE6sentrycvbB8ne180100Ev, symObjAddr: 0x50BA0, symBinAddr: 0x1000542C0, symSize: 0xC8 }
  - { offset: 0x2E295, size: 0x8, addend: 0x0, symName: __ZNSt3__119ostreambuf_iteratorIcNS_11char_traitsIcEEEC1B8ne180100ERNS_13basic_ostreamIcS2_EE, symObjAddr: 0x51650, symBinAddr: 0x100054D70, symSize: 0x60 }
  - { offset: 0x2E2CD, size: 0x8, addend: 0x0, symName: __ZNKSt3__18ios_base5flagsB8ne180100Ev, symObjAddr: 0x516B0, symBinAddr: 0x100054DD0, symSize: 0x120 }
  - { offset: 0x2E2F5, size: 0x8, addend: 0x0, symName: __ZNKSt3__19basic_iosIcNS_11char_traitsIcEEE4fillB8ne180100Ev, symObjAddr: 0x517D0, symBinAddr: 0x100054EF0, symSize: 0x3A0 }
  - { offset: 0x2E31D, size: 0x8, addend: 0x0, symName: __ZNKSt3__119ostreambuf_iteratorIcNS_11char_traitsIcEEE6failedB8ne180100Ev, symObjAddr: 0x51B70, symBinAddr: 0x100055290, symSize: 0x80 }
  - { offset: 0x2E343, size: 0x8, addend: 0x0, symName: __ZNSt3__19basic_iosIcNS_11char_traitsIcEEE8setstateB8ne180100Ej, symObjAddr: 0x51BF0, symBinAddr: 0x100055310, symSize: 0x100 }
  - { offset: 0x2E378, size: 0x8, addend: 0x0, symName: __ZNKSt3__18ios_base5widthB8ne180100Ev, symObjAddr: 0x51CF0, symBinAddr: 0x100055410, symSize: 0x110 }
  - { offset: 0x2E3A0, size: 0x8, addend: 0x0, symName: __ZNSt3__115basic_streambufIcNS_11char_traitsIcEEE5sputnB8ne180100EPKcl, symObjAddr: 0x51E00, symBinAddr: 0x100055520, symSize: 0x160 }
  - { offset: 0x2E3E2, size: 0x8, addend: 0x0, symName: __ZNSt3__112basic_stringIcNS_11char_traitsIcEENS_9allocatorIcEEEC1B8ne180100Emc, symObjAddr: 0x51F60, symBinAddr: 0x100055680, symSize: 0x60 }
  - { offset: 0x2E42A, size: 0x8, addend: 0x0, symName: __ZNSt3__112basic_stringIcNS_11char_traitsIcEENS_9allocatorIcEEE4dataB8ne180100Ev, symObjAddr: 0x51FC0, symBinAddr: 0x1000556E0, symSize: 0x60 }
  - { offset: 0x2E450, size: 0x8, addend: 0x0, symName: __ZNSt3__18ios_base5widthB8ne180100El, symObjAddr: 0x52020, symBinAddr: 0x100055740, symSize: 0x1E0 }
  - { offset: 0x2E496, size: 0x8, addend: 0x0, symName: __ZNSt3__112basic_stringIcNS_11char_traitsIcEENS_9allocatorIcEEEC2B8ne180100Emc, symObjAddr: 0x52200, symBinAddr: 0x100055920, symSize: 0x1B0 }
  - { offset: 0x2E4E1, size: 0x8, addend: 0x0, symName: __ZNSt3__112basic_stringIcNS_11char_traitsIcEENS_9allocatorIcEEE13__get_pointerB8ne180100Ev, symObjAddr: 0x523B0, symBinAddr: 0x100055AD0, symSize: 0x80 }
  - { offset: 0x2E507, size: 0x8, addend: 0x0, symName: __ZNSt3__119ostreambuf_iteratorIcNS_11char_traitsIcEEEC2B8ne180100ERNS_13basic_ostreamIcS2_EE, symObjAddr: 0x52430, symBinAddr: 0x100055B50, symSize: 0x290 }
  - { offset: 0x2E53F, size: 0x8, addend: 0x0, symName: __ZNKSt3__19basic_iosIcNS_11char_traitsIcEEE5rdbufB8ne180100Ev, symObjAddr: 0x526C0, symBinAddr: 0x100055DE0, symSize: 0x100 }
  - { offset: 0x2E567, size: 0x8, addend: 0x0, symName: __ZNKSt3__18ios_base5rdbufB8ne180100Ev, symObjAddr: 0x527C0, symBinAddr: 0x100055EE0, symSize: 0x118 }
  - { offset: 0x2E58D, size: 0x8, addend: 0x0, symName: __ZNSt3__111char_traitsIcE11eq_int_typeB8ne180100Eii, symObjAddr: 0x528D8, symBinAddr: 0x100055FF8, symSize: 0x30 }
  - { offset: 0x2E5C0, size: 0x8, addend: 0x0, symName: __ZNSt3__111char_traitsIcE3eofB8ne180100Ev, symObjAddr: 0x52908, symBinAddr: 0x100056028, symSize: 0x18 }
  - { offset: 0x2E5D4, size: 0x8, addend: 0x0, symName: __ZNKSt3__19basic_iosIcNS_11char_traitsIcEEE5widenB8ne180100Ec, symObjAddr: 0x52920, symBinAddr: 0x100056040, symSize: 0x3E8 }
  - { offset: 0x2E63B, size: 0x8, addend: 0x0, symName: __ZNKSt3__15ctypeIcE5widenB8ne180100Ec, symObjAddr: 0x52E60, symBinAddr: 0x100056580, symSize: 0x150 }
  - { offset: 0x2E670, size: 0x8, addend: 0x0, symName: __ZNSt3__18ios_base8setstateB8ne180100Ej, symObjAddr: 0x52FB0, symBinAddr: 0x1000566D0, symSize: 0x1C0 }
  - { offset: 0x2E6A7, size: 0x8, addend: 0x0, symName: __ZNSt3__19basic_iosIcNS_11char_traitsIcEEEC2B8ne180100Ev, symObjAddr: 0x53170, symBinAddr: 0x100056890, symSize: 0xC0 }
  - { offset: 0x2E6D1, size: 0x8, addend: 0x0, symName: __ZNSt3__113basic_istreamIcNS_11char_traitsIcEEEC2B8ne180100EPNS_15basic_streambufIcS2_EE, symObjAddr: 0x53230, symBinAddr: 0x100056950, symSize: 0x360 }
  - { offset: 0x2E716, size: 0x8, addend: 0x0, symName: __ZNSt3__18ios_baseC2B8ne180100Ev, symObjAddr: 0x53590, symBinAddr: 0x100056CB0, symSize: 0x90 }
  - { offset: 0x2E740, size: 0x8, addend: 0x0, symName: __ZNSt3__19basic_iosIcNS_11char_traitsIcEEE4initB8ne180100EPNS_15basic_streambufIcS2_EE, symObjAddr: 0x53620, symBinAddr: 0x100056D40, symSize: 0x2B0 }
  - { offset: 0x2E79A, size: 0x8, addend: 0x0, symName: __ZNKSt3__113basic_istreamIcNS_11char_traitsIcEEE6sentrycvbB8ne180100Ev, symObjAddr: 0x538D0, symBinAddr: 0x100056FF0, symSize: 0xB0 }
  - { offset: 0x2E7C0, size: 0x8, addend: 0x0, symName: __ZNSt3__112basic_stringIcNS_11char_traitsIcEENS_9allocatorIcEEE5clearB8ne180100Ev, symObjAddr: 0x53980, symBinAddr: 0x1000570A0, symSize: 0x260 }
  - { offset: 0x2E7F7, size: 0x8, addend: 0x0, symName: __ZNKSt3__112basic_stringIcNS_11char_traitsIcEENS_9allocatorIcEEE8max_sizeB8ne180100Ev, symObjAddr: 0x53BE0, symBinAddr: 0x100057300, symSize: 0x170 }
  - { offset: 0x2E849, size: 0x8, addend: 0x0, symName: __ZNSt3__115basic_streambufIcNS_11char_traitsIcEEE5sgetcB8ne180100Ev, symObjAddr: 0x53D50, symBinAddr: 0x100057470, symSize: 0x408 }
  - { offset: 0x2E86F, size: 0x8, addend: 0x0, symName: __ZNSt3__111char_traitsIcE12to_char_typeB8ne180100Ei, symObjAddr: 0x54158, symBinAddr: 0x100057878, symSize: 0x18 }
  - { offset: 0x2E893, size: 0x8, addend: 0x0, symName: __ZNKSt3__15ctypeIcE2isB8ne180100Ejc, symObjAddr: 0x54170, symBinAddr: 0x100057890, symSize: 0x230 }
  - { offset: 0x2E8D7, size: 0x8, addend: 0x0, symName: __ZNSt3__115basic_streambufIcNS_11char_traitsIcEEE6sbumpcB8ne180100Ev, symObjAddr: 0x543A0, symBinAddr: 0x100057AC0, symSize: 0x490 }
  - { offset: 0x2E8FD, size: 0x8, addend: 0x0, symName: __ZNSt3__18ios_base18__setstate_nothrowB8ne180100Ej, symObjAddr: 0x54830, symBinAddr: 0x100057F50, symSize: 0x2F0 }
  - { offset: 0x2E932, size: 0x8, addend: 0x0, symName: __ZNKSt3__19basic_iosIcNS_11char_traitsIcEEE10exceptionsB8ne180100Ev, symObjAddr: 0x54B20, symBinAddr: 0x100058240, symSize: 0x100 }
  - { offset: 0x2E958, size: 0x8, addend: 0x0, symName: __ZNSt3__112basic_stringIcNS_11char_traitsIcEENS_9allocatorIcEEE15__set_long_sizeB8ne180100Em, symObjAddr: 0x54C20, symBinAddr: 0x100058340, symSize: 0x190 }
  - { offset: 0x2E98D, size: 0x8, addend: 0x0, symName: __ZNKSt3__112basic_stringIcNS_11char_traitsIcEENS_9allocatorIcEEE7__allocB8ne180100Ev, symObjAddr: 0x54DB0, symBinAddr: 0x1000584D0, symSize: 0xB0 }
  - { offset: 0x2E9B3, size: 0x8, addend: 0x0, symName: __ZNKSt3__117__compressed_pairINS_12basic_stringIcNS_11char_traitsIcEENS_9allocatorIcEEE5__repES5_E6secondB8ne180100Ev, symObjAddr: 0x54E60, symBinAddr: 0x100058580, symSize: 0xC8 }
  - { offset: 0x2E9D9, size: 0x8, addend: 0x0, symName: __ZNSt3__111char_traitsIcE11to_int_typeB8ne180100Ec, symObjAddr: 0x54F28, symBinAddr: 0x100058648, symSize: 0x18 }
  - { offset: 0x2E9FD, size: 0x8, addend: 0x0, symName: __ZNKSt3__18ios_base10exceptionsB8ne180100Ev, symObjAddr: 0x54F40, symBinAddr: 0x100058660, symSize: 0x120 }
  - { offset: 0x2EA25, size: 0x8, addend: 0x0, symName: __ZNKSt3__19basic_iosIcNS_11char_traitsIcEEE4failB8ne180100Ev, symObjAddr: 0x55060, symBinAddr: 0x100058780, symSize: 0x100 }
  - { offset: 0x2EA4B, size: 0x8, addend: 0x0, symName: __ZNKSt3__18ios_base4failB8ne180100Ev, symObjAddr: 0x55160, symBinAddr: 0x100058880, symSize: 0x130 }
  - { offset: 0x2EA73, size: 0x8, addend: 0x0, symName: __ZNSt3__114basic_iostreamIcNS_11char_traitsIcEEEC2B8ne180100EPNS_15basic_streambufIcS2_EE, symObjAddr: 0x55290, symBinAddr: 0x1000589B0, symSize: 0x2C0 }
  - { offset: 0x2EAB9, size: 0x8, addend: 0x0, symName: __ZNSt3__115basic_stringbufIcNS_11char_traitsIcEENS_9allocatorIcEEEC1B8ne180100ERKNS_12basic_stringIcS2_S4_EEj, symObjAddr: 0x55550, symBinAddr: 0x100058C70, symSize: 0x60 }
  - { offset: 0x2EB01, size: 0x8, addend: 0x0, symName: __ZNSt3__113basic_ostreamIcNS_11char_traitsIcEEEC2B8ne180100Ev, symObjAddr: 0x555B0, symBinAddr: 0x100058CD0, symSize: 0x170 }
  - { offset: 0x2EB38, size: 0x8, addend: 0x0, symName: __ZNSt3__115basic_stringbufIcNS_11char_traitsIcEENS_9allocatorIcEEEC2B8ne180100ERKNS_12basic_stringIcS2_S4_EEj, symObjAddr: 0x55720, symBinAddr: 0x100058E40, symSize: 0x460 }
  - { offset: 0x2EB83, size: 0x8, addend: 0x0, symName: __ZNKSt3__112basic_stringIcNS_11char_traitsIcEENS_9allocatorIcEEE13get_allocatorB8ne180100Ev, symObjAddr: 0x55B80, symBinAddr: 0x1000592A0, symSize: 0x50 }
  - { offset: 0x2EBA9, size: 0x8, addend: 0x0, symName: __ZNSt3__112basic_stringIcNS_11char_traitsIcEENS_9allocatorIcEEEC1B8ne180100ERKS4_, symObjAddr: 0x55BD0, symBinAddr: 0x1000592F0, symSize: 0x60 }
  - { offset: 0x2EBE2, size: 0x8, addend: 0x0, symName: __ZNSt3__112basic_stringIcNS_11char_traitsIcEENS_9allocatorIcEEEC2B8ne180100ERKS4_, symObjAddr: 0x55C30, symBinAddr: 0x100059350, symSize: 0x1D0 }
  - { offset: 0x2EC1D, size: 0x8, addend: 0x0, symName: __ZNSt3__117__compressed_pairINS_12basic_stringIcNS_11char_traitsIcEENS_9allocatorIcEEE5__repES5_EC1B8ne180100INS_16__value_init_tagERKS5_EEOT_OT0_, symObjAddr: 0x55E00, symBinAddr: 0x100059520, symSize: 0x60 }
  - { offset: 0x2EC75, size: 0x8, addend: 0x0, symName: __ZNSt3__117__compressed_pairINS_12basic_stringIcNS_11char_traitsIcEENS_9allocatorIcEEE5__repES5_EC2B8ne180100INS_16__value_init_tagERKS5_EEOT_OT0_, symObjAddr: 0x55E60, symBinAddr: 0x100059580, symSize: 0xE0 }
  - { offset: 0x2ECCD, size: 0x8, addend: 0x0, symName: __ZNSt3__122__compressed_pair_elemINS_9allocatorIcEELi1ELb1EEC2B8ne180100IRKS2_vEEOT_, symObjAddr: 0x55F40, symBinAddr: 0x100059660, symSize: 0x48 }
  - { offset: 0x2ED0F, size: 0x8, addend: 0x0, symName: __ZNSt3__111char_traitsIcE2eqEcc, symObjAddr: 0x55F88, symBinAddr: 0x1000596A8, symSize: 0x28 }
  - { offset: 0x2ED40, size: 0x8, addend: 0x0, symName: __ZNKSt3__18ios_base3eofB8ne180100Ev, symObjAddr: 0x55FB0, symBinAddr: 0x1000596D0, symSize: 0x130 }
  - { offset: 0x2ED68, size: 0x8, addend: 0x0, symName: __ZNSt3__113basic_ostreamIcNS_11char_traitsIcEEEC2B8ne180100EPNS_15basic_streambufIcS2_EE, symObjAddr: 0x560E0, symBinAddr: 0x100059800, symSize: 0x320 }
  - { offset: 0x2EDAD, size: 0x8, addend: 0x0, symName: __ZNSt3__115basic_stringbufIcNS_11char_traitsIcEENS_9allocatorIcEEEC1B8ne180100Ej, symObjAddr: 0x56400, symBinAddr: 0x100059B20, symSize: 0x60 }
  - { offset: 0x2EDE6, size: 0x8, addend: 0x0, symName: __ZNSt3__115basic_stringbufIcNS_11char_traitsIcEENS_9allocatorIcEEEC2B8ne180100Ej, symObjAddr: 0x56460, symBinAddr: 0x100059B80, symSize: 0x160 }
  - { offset: 0x2EE1F, size: 0x8, addend: 0x0, symName: __ZNKRSt3__115basic_stringbufIcNS_11char_traitsIcEENS_9allocatorIcEEE3strB8ne180100Ev, symObjAddr: 0x565C0, symBinAddr: 0x100059CE0, symSize: 0x2F0 }
  - { offset: 0x2EE46, size: 0x8, addend: 0x0, symName: __ZNKSt3__115basic_stringbufIcNS_11char_traitsIcEENS_9allocatorIcEEE3strB8ne180100IS4_Qsr14__is_allocatorITL0__EE5valueEENS_12basic_stringIcS2_T_EERKS9_, symObjAddr: 0x568B0, symBinAddr: 0x100059FD0, symSize: 0x2A0 }
  - { offset: 0x2EE86, size: 0x8, addend: 0x0, symName: __ZNKSt3__115basic_stringbufIcNS_11char_traitsIcEENS_9allocatorIcEEE4viewB8ne180100Ev, symObjAddr: 0x56B50, symBinAddr: 0x10005A270, symSize: 0xAC0 }
  - { offset: 0x2EEAF, size: 0x8, addend: 0x0, symName: __ZNSt3__112basic_stringIcNS_11char_traitsIcEENS_9allocatorIcEEEC1INS_17basic_string_viewIcS2_EETnNS_9enable_ifIXaasr33__can_be_converted_to_string_viewIcS2_T_EE5valuentsr17__is_same_uncvrefISA_S5_EE5valueEiE4typeELi0EEERKSA_RKS4_, symObjAddr: 0x57610, symBinAddr: 0x10005AD30, symSize: 0x60 }
  - { offset: 0x2EF06, size: 0x8, addend: 0x0, symName: __ZNKSt3__115basic_streambufIcNS_11char_traitsIcEEE4pptrB8ne180100Ev, symObjAddr: 0x57670, symBinAddr: 0x10005AD90, symSize: 0x110 }
  - { offset: 0x2EF2C, size: 0x8, addend: 0x0, symName: __ZNKSt3__115basic_streambufIcNS_11char_traitsIcEEE5pbaseB8ne180100Ev, symObjAddr: 0x57780, symBinAddr: 0x10005AEA0, symSize: 0x110 }
  - { offset: 0x2EF58, size: 0x8, addend: 0x0, symName: __ZNSt3__117basic_string_viewIcNS_11char_traitsIcEEEC1B8ne180100ITkNS_19contiguous_iteratorEPcTkNS_18sized_sentinel_forITL0__EES5_Qaa9is_same_vINS_11conditionalIXsr21__is_primary_templateINS_15iterator_traitsIu14__remove_cvrefIS7_EEEEE5valueENS_26indirectly_readable_traitsISA_EESB_E4type10value_typeET_Ent16is_convertible_vITL0_0_mEEESH_T0_, symObjAddr: 0x57890, symBinAddr: 0x10005AFB0, symSize: 0x60 }
  - { offset: 0x2EFB2, size: 0x8, addend: 0x0, symName: __ZNKSt3__115basic_streambufIcNS_11char_traitsIcEEE5ebackB8ne180100Ev, symObjAddr: 0x578F0, symBinAddr: 0x10005B010, symSize: 0x110 }
  - { offset: 0x2EFD8, size: 0x8, addend: 0x0, symName: __ZNKSt3__115basic_streambufIcNS_11char_traitsIcEEE5egptrB8ne180100Ev, symObjAddr: 0x57A00, symBinAddr: 0x10005B120, symSize: 0x110 }
  - { offset: 0x2EFFE, size: 0x8, addend: 0x0, symName: __ZNSt3__117basic_string_viewIcNS_11char_traitsIcEEEC1B8ne180100Ev, symObjAddr: 0x57B10, symBinAddr: 0x10005B230, symSize: 0x50 }
  - { offset: 0x2F028, size: 0x8, addend: 0x0, symName: __ZNSt3__117basic_string_viewIcNS_11char_traitsIcEEEC2B8ne180100ITkNS_19contiguous_iteratorEPcTkNS_18sized_sentinel_forITL0__EES5_Qaa9is_same_vINS_11conditionalIXsr21__is_primary_templateINS_15iterator_traitsIu14__remove_cvrefIS7_EEEEE5valueENS_26indirectly_readable_traitsISA_EESB_E4type10value_typeET_Ent16is_convertible_vITL0_0_mEEESH_T0_, symObjAddr: 0x57B60, symBinAddr: 0x10005B280, symSize: 0xE8 }
  - { offset: 0x2F082, size: 0x8, addend: 0x0, symName: __ZNSt3__117basic_string_viewIcNS_11char_traitsIcEEEC2B8ne180100Ev, symObjAddr: 0x57C70, symBinAddr: 0x10005B390, symSize: 0xC0 }
  - { offset: 0x2F0AC, size: 0x8, addend: 0x0, symName: __ZNSt3__112basic_stringIcNS_11char_traitsIcEENS_9allocatorIcEEEC2INS_17basic_string_viewIcS2_EETnNS_9enable_ifIXaasr33__can_be_converted_to_string_viewIcS2_T_EE5valuentsr17__is_same_uncvrefISA_S5_EE5valueEiE4typeELi0EEERKSA_RKS4_, symObjAddr: 0x57D30, symBinAddr: 0x10005B450, symSize: 0x230 }
  - { offset: 0x2F127, size: 0x8, addend: 0x0, symName: __ZNSt3__117__compressed_pairINS_12basic_stringIcNS_11char_traitsIcEENS_9allocatorIcEEE5__repES5_EC1B8ne180100INS_18__default_init_tagERKS5_EEOT_OT0_, symObjAddr: 0x57F60, symBinAddr: 0x10005B680, symSize: 0x60 }
  - { offset: 0x2F17F, size: 0x8, addend: 0x0, symName: __ZNSt3__117__compressed_pairINS_12basic_stringIcNS_11char_traitsIcEENS_9allocatorIcEEE5__repES5_EC2B8ne180100INS_18__default_init_tagERKS5_EEOT_OT0_, symObjAddr: 0x57FC0, symBinAddr: 0x10005B6E0, symSize: 0xE0 }
  - { offset: 0x2F1D7, size: 0x8, addend: 0x0, symName: __ZNSt3__113basic_filebufIcNS_11char_traitsIcEEE4openERKNS_12basic_stringIcS2_NS_9allocatorIcEEEEj, symObjAddr: 0x580A0, symBinAddr: 0x10005B7C0, symSize: 0x120 }
  - { offset: 0x2F21D, size: 0x8, addend: 0x0, symName: __ZNKSt3__112basic_stringIcNS_11char_traitsIcEENS_9allocatorIcEEE5c_strB8ne180100Ev, symObjAddr: 0x581C0, symBinAddr: 0x10005B8E0, symSize: 0x50 }
  - { offset: 0x2F243, size: 0x8, addend: 0x0, symName: __GLOBAL__sub_I_ciphers.cpp, symObjAddr: 0x582F0, symBinAddr: 0x10005BA10, symSize: 0x21 }
...
